io.Writer.Write STEXT dupok size=156 args=0x40 locals=0x40
	0x0000 00000 (<autogenerated>:1)	TEXT	io.Writer.Write(SB), DUPOK|WRAPPER, $64-64
	0x0000 00000 (<autogenerated>:1)	MOVQ	(TLS), CX
	0x0009 00009 (<autogenerated>:1)	CMPQ	SP, 16(CX)
	0x000d 00013 (<autogenerated>:1)	JLS	131
	0x000f 00015 (<autogenerated>:1)	SUBQ	$64, SP
	0x0013 00019 (<autogenerated>:1)	MOVQ	BP, 56(SP)
	0x0018 00024 (<autogenerated>:1)	LEAQ	56(SP), BP
	0x001d 00029 (<autogenerated>:1)	MOVQ	32(CX), BX
	0x0021 00033 (<autogenerated>:1)	TESTQ	BX, BX
	0x0024 00036 (<autogenerated>:1)	JNE	141
	0x0026 00038 (<autogenerated>:1)	NOP
	0x0026 00038 (<autogenerated>:1)	FUNCDATA	$0, gclocals·ed2b4e9472fcfb4edac5bdc674d399da(SB)
	0x0026 00038 (<autogenerated>:1)	FUNCDATA	$1, gclocals·69c1753bd5f81501d95132d08af04464(SB)
	0x0026 00038 (<autogenerated>:1)	MOVQ	""..this+72(SP), AX
	0x002b 00043 (<autogenerated>:1)	MOVQ	32(AX), AX
	0x002f 00047 (<autogenerated>:1)	MOVQ	""..this+80(SP), CX
	0x0034 00052 (<autogenerated>:1)	MOVQ	io.p+88(SP), DX
	0x0039 00057 (<autogenerated>:1)	MOVQ	DX, 8(SP)
	0x003e 00062 (<autogenerated>:1)	MOVQ	io.p+96(SP), DX
	0x0043 00067 (<autogenerated>:1)	MOVQ	DX, 16(SP)
	0x0048 00072 (<autogenerated>:1)	MOVQ	io.p+104(SP), DX
	0x004d 00077 (<autogenerated>:1)	MOVQ	DX, 24(SP)
	0x0052 00082 (<autogenerated>:1)	MOVQ	CX, (SP)
	0x0056 00086 (<autogenerated>:1)	PCDATA	$0, $1
	0x0056 00086 (<autogenerated>:1)	CALL	AX
	0x0058 00088 (<autogenerated>:1)	MOVQ	32(SP), AX
	0x005d 00093 (<autogenerated>:1)	MOVQ	40(SP), CX
	0x0062 00098 (<autogenerated>:1)	MOVQ	48(SP), DX
	0x0067 00103 (<autogenerated>:1)	MOVQ	AX, io.n+112(SP)
	0x006c 00108 (<autogenerated>:1)	MOVQ	CX, io.err+120(SP)
	0x0071 00113 (<autogenerated>:1)	MOVQ	DX, io.err+128(SP)
	0x0079 00121 (<autogenerated>:1)	MOVQ	56(SP), BP
	0x007e 00126 (<autogenerated>:1)	ADDQ	$64, SP
	0x0082 00130 (<autogenerated>:1)	RET
	0x0083 00131 (<autogenerated>:1)	NOP
	0x0083 00131 (<autogenerated>:1)	PCDATA	$0, $-1
	0x0083 00131 (<autogenerated>:1)	CALL	runtime.morestack_noctxt(SB)
	0x0088 00136 (<autogenerated>:1)	JMP	0
	0x008d 00141 (<autogenerated>:1)	LEAQ	72(SP), DI
	0x0092 00146 (<autogenerated>:1)	CMPQ	(BX), DI
	0x0095 00149 (<autogenerated>:1)	JNE	38
	0x0097 00151 (<autogenerated>:1)	MOVQ	SP, (BX)
	0x009a 00154 (<autogenerated>:1)	JMP	38
	0x0000 64 48 8b 0c 25 00 00 00 00 48 3b 61 10 76 74 48  dH..%....H;a.vtH
	0x0010 83 ec 40 48 89 6c 24 38 48 8d 6c 24 38 48 8b 59  ..@H.l$8H.l$8H.Y
	0x0020 20 48 85 db 75 67 48 8b 44 24 48 48 8b 40 20 48   H..ugH.D$HH.@ H
	0x0030 8b 4c 24 50 48 8b 54 24 58 48 89 54 24 08 48 8b  .L$PH.T$XH.T$.H.
	0x0040 54 24 60 48 89 54 24 10 48 8b 54 24 68 48 89 54  T$`H.T$.H.T$hH.T
	0x0050 24 18 48 89 0c 24 ff d0 48 8b 44 24 20 48 8b 4c  $.H..$..H.D$ H.L
	0x0060 24 28 48 8b 54 24 30 48 89 44 24 70 48 89 4c 24  $(H.T$0H.D$pH.L$
	0x0070 78 48 89 94 24 80 00 00 00 48 8b 6c 24 38 48 83  xH..$....H.l$8H.
	0x0080 c4 40 c3 e8 00 00 00 00 e9 73 ff ff ff 48 8d 7c  .@.......s...H.|
	0x0090 24 48 48 39 3b 75 8f 48 89 23 eb 8a              $HH9;u.H.#..
	rel 5+4 t=16 TLS+0
	rel 86+0 t=11 +0
	rel 132+4 t=8 runtime.morestack_noctxt+0
os.(*File).close STEXT dupok nosplit size=36 args=0x18 locals=0x0
	0x0000 00000 (<autogenerated>:1)	TEXT	os.(*File).close(SB), DUPOK|NOSPLIT|NOFRAME, $0-24
	0x0000 00000 (<autogenerated>:1)	FUNCDATA	$0, gclocals·d4dc2f11db048877dbc0f60a22b4adb3(SB)
	0x0000 00000 (<autogenerated>:1)	FUNCDATA	$1, gclocals·33cdeccccebe80329f1fdbee7f5874cb(SB)
	0x0000 00000 (<autogenerated>:1)	MOVQ	""..this+8(SP), AX
	0x0005 00005 (<autogenerated>:1)	MOVQ	(AX), AX
	0x0008 00008 (<autogenerated>:1)	MOVQ	AX, ""..this+8(SP)
	0x000d 00013 (<autogenerated>:1)	MOVQ	$0, "".~r1+16(SP)
	0x0016 00022 (<autogenerated>:1)	MOVQ	$0, "".~r1+24(SP)
	0x001f 00031 (<autogenerated>:1)	JMP	os.(*file).close(SB)
	0x0000 48 8b 44 24 08 48 8b 00 48 89 44 24 08 48 c7 44  H.D$.H..H.D$.H.D
	0x0010 24 10 00 00 00 00 48 c7 44 24 18 00 00 00 00 e9  $.....H.D$......
	0x0020 00 00 00 00                                      ....
	rel 32+4 t=15 os.(*file).close+0
io.Reader.Read STEXT dupok size=156 args=0x40 locals=0x40
	0x0000 00000 (<autogenerated>:1)	TEXT	io.Reader.Read(SB), DUPOK|WRAPPER, $64-64
	0x0000 00000 (<autogenerated>:1)	MOVQ	(TLS), CX
	0x0009 00009 (<autogenerated>:1)	CMPQ	SP, 16(CX)
	0x000d 00013 (<autogenerated>:1)	JLS	131
	0x000f 00015 (<autogenerated>:1)	SUBQ	$64, SP
	0x0013 00019 (<autogenerated>:1)	MOVQ	BP, 56(SP)
	0x0018 00024 (<autogenerated>:1)	LEAQ	56(SP), BP
	0x001d 00029 (<autogenerated>:1)	MOVQ	32(CX), BX
	0x0021 00033 (<autogenerated>:1)	TESTQ	BX, BX
	0x0024 00036 (<autogenerated>:1)	JNE	141
	0x0026 00038 (<autogenerated>:1)	NOP
	0x0026 00038 (<autogenerated>:1)	FUNCDATA	$0, gclocals·ed2b4e9472fcfb4edac5bdc674d399da(SB)
	0x0026 00038 (<autogenerated>:1)	FUNCDATA	$1, gclocals·69c1753bd5f81501d95132d08af04464(SB)
	0x0026 00038 (<autogenerated>:1)	MOVQ	""..this+72(SP), AX
	0x002b 00043 (<autogenerated>:1)	MOVQ	32(AX), AX
	0x002f 00047 (<autogenerated>:1)	MOVQ	""..this+80(SP), CX
	0x0034 00052 (<autogenerated>:1)	MOVQ	io.p+88(SP), DX
	0x0039 00057 (<autogenerated>:1)	MOVQ	DX, 8(SP)
	0x003e 00062 (<autogenerated>:1)	MOVQ	io.p+96(SP), DX
	0x0043 00067 (<autogenerated>:1)	MOVQ	DX, 16(SP)
	0x0048 00072 (<autogenerated>:1)	MOVQ	io.p+104(SP), DX
	0x004d 00077 (<autogenerated>:1)	MOVQ	DX, 24(SP)
	0x0052 00082 (<autogenerated>:1)	MOVQ	CX, (SP)
	0x0056 00086 (<autogenerated>:1)	PCDATA	$0, $1
	0x0056 00086 (<autogenerated>:1)	CALL	AX
	0x0058 00088 (<autogenerated>:1)	MOVQ	32(SP), AX
	0x005d 00093 (<autogenerated>:1)	MOVQ	40(SP), CX
	0x0062 00098 (<autogenerated>:1)	MOVQ	48(SP), DX
	0x0067 00103 (<autogenerated>:1)	MOVQ	AX, io.n+112(SP)
	0x006c 00108 (<autogenerated>:1)	MOVQ	CX, io.err+120(SP)
	0x0071 00113 (<autogenerated>:1)	MOVQ	DX, io.err+128(SP)
	0x0079 00121 (<autogenerated>:1)	MOVQ	56(SP), BP
	0x007e 00126 (<autogenerated>:1)	ADDQ	$64, SP
	0x0082 00130 (<autogenerated>:1)	RET
	0x0083 00131 (<autogenerated>:1)	NOP
	0x0083 00131 (<autogenerated>:1)	PCDATA	$0, $-1
	0x0083 00131 (<autogenerated>:1)	CALL	runtime.morestack_noctxt(SB)
	0x0088 00136 (<autogenerated>:1)	JMP	0
	0x008d 00141 (<autogenerated>:1)	LEAQ	72(SP), DI
	0x0092 00146 (<autogenerated>:1)	CMPQ	(BX), DI
	0x0095 00149 (<autogenerated>:1)	JNE	38
	0x0097 00151 (<autogenerated>:1)	MOVQ	SP, (BX)
	0x009a 00154 (<autogenerated>:1)	JMP	38
	0x0000 64 48 8b 0c 25 00 00 00 00 48 3b 61 10 76 74 48  dH..%....H;a.vtH
	0x0010 83 ec 40 48 89 6c 24 38 48 8d 6c 24 38 48 8b 59  ..@H.l$8H.l$8H.Y
	0x0020 20 48 85 db 75 67 48 8b 44 24 48 48 8b 40 20 48   H..ugH.D$HH.@ H
	0x0030 8b 4c 24 50 48 8b 54 24 58 48 89 54 24 08 48 8b  .L$PH.T$XH.T$.H.
	0x0040 54 24 60 48 89 54 24 10 48 8b 54 24 68 48 89 54  T$`H.T$.H.T$hH.T
	0x0050 24 18 48 89 0c 24 ff d0 48 8b 44 24 20 48 8b 4c  $.H..$..H.D$ H.L
	0x0060 24 28 48 8b 54 24 30 48 89 44 24 70 48 89 4c 24  $(H.T$0H.D$pH.L$
	0x0070 78 48 89 94 24 80 00 00 00 48 8b 6c 24 38 48 83  xH..$....H.l$8H.
	0x0080 c4 40 c3 e8 00 00 00 00 e9 73 ff ff ff 48 8d 7c  .@.......s...H.|
	0x0090 24 48 48 39 3b 75 8f 48 89 23 eb 8a              $HH9;u.H.#..
	rel 5+4 t=16 TLS+0
	rel 86+0 t=11 +0
	rel 132+4 t=8 runtime.morestack_noctxt+0
"".decode STEXT size=1130 args=0x20 locals=0x148
	0x0000 00000 (morse.go:46)	TEXT	"".decode(SB), $328-32
	0x0000 00000 (morse.go:46)	MOVQ	(TLS), CX
	0x0009 00009 (morse.go:46)	LEAQ	-200(SP), AX
	0x0011 00017 (morse.go:46)	CMPQ	AX, 16(CX)
	0x0015 00021 (morse.go:46)	JLS	1120
	0x001b 00027 (morse.go:46)	SUBQ	$328, SP
	0x0022 00034 (morse.go:46)	MOVQ	BP, 320(SP)
	0x002a 00042 (morse.go:46)	LEAQ	320(SP), BP
	0x0032 00050 (morse.go:46)	XORPS	X0, X0
	0x0035 00053 (morse.go:46)	LEAQ	184(SP), DI
	0x003d 00061 (morse.go:46)	DUFFZERO	$277
	0x0050 00080 (morse.go:46)	MOVUPS	X0, -8(DI)
	0x0054 00084 (morse.go:46)	FUNCDATA	$0, gclocals·1b5bbc5077547cdcc54783daedd9c5fe(SB)
	0x0054 00084 (morse.go:46)	FUNCDATA	$1, gclocals·30ce53953925ecce551ea5a1e6b68a83(SB)
	0x0054 00084 (morse.go:46)	LEAQ	type.[2]uint8(SB), AX
	0x005b 00091 (morse.go:47)	MOVQ	AX, (SP)
	0x005f 00095 (morse.go:47)	PCDATA	$0, $0
	0x005f 00095 (morse.go:47)	CALL	runtime.newobject(SB)
	0x0064 00100 (morse.go:47)	MOVQ	8(SP), AX
	0x0069 00105 (morse.go:47)	MOVQ	AX, "".&tmpBuf+120(SP)
	0x006e 00110 (morse.go:47)	LEAQ	type.uint8(SB), CX
	0x0075 00117 (morse.go:48)	MOVQ	CX, (SP)
	0x0079 00121 (morse.go:48)	MOVQ	$0, 8(SP)
	0x0082 00130 (morse.go:48)	MOVQ	$0, 16(SP)
	0x008b 00139 (morse.go:48)	PCDATA	$0, $1
	0x008b 00139 (morse.go:48)	CALL	runtime.makeslice(SB)
	0x0090 00144 (morse.go:48)	MOVQ	40(SP), AX
	0x0095 00149 (morse.go:48)	MOVQ	AX, "".buf·2.cap+72(SP)
	0x009a 00154 (morse.go:48)	MOVQ	32(SP), CX
	0x009f 00159 (morse.go:48)	MOVQ	CX, "".buf·2.len+64(SP)
	0x00a4 00164 (morse.go:48)	MOVQ	24(SP), DX
	0x00a9 00169 (morse.go:48)	MOVQ	DX, "".buf·2.ptr+112(SP)
	0x00ae 00174 (morse.go:48)	LEAQ	type.bytes.Buffer(SB), BX
	0x00b5 00181 (morse.go:48)	MOVQ	BX, (SP)
	0x00b9 00185 (morse.go:48)	PCDATA	$0, $2
	0x00b9 00185 (morse.go:48)	CALL	runtime.newobject(SB)
	0x00be 00190 (morse.go:48)	MOVQ	8(SP), AX
	0x00c3 00195 (morse.go:48)	MOVQ	AX, bytes.b·2+104(SP)
	0x00c8 00200 (morse.go:48)	MOVQ	"".buf·2.len+64(SP), CX
	0x00cd 00205 (morse.go:48)	MOVQ	CX, 8(AX)
	0x00d1 00209 (morse.go:48)	MOVQ	"".buf·2.cap+72(SP), CX
	0x00d6 00214 (morse.go:48)	MOVQ	CX, 16(AX)
	0x00da 00218 (morse.go:48)	MOVL	runtime.writeBarrier(SB), CX
	0x00e0 00224 (morse.go:48)	TESTL	CX, CX
	0x00e2 00226 (morse.go:48)	JNE	1084
	0x00e8 00232 (morse.go:48)	MOVQ	"".buf·2.ptr+112(SP), CX
	0x00ed 00237 (morse.go:48)	MOVQ	CX, (AX)
	0x00f0 00240 (morse.go:48)	MOVQ	"".r+336(SP), CX
	0x00f8 00248 (morse.go:48)	LEAQ	go.itab.*bufio.Reader,io.Reader(SB), DX
	0x00ff 00255 (morse.go:49)	CMPQ	CX, DX
	0x0102 00258 (morse.go:49)	JNE	1074
	0x0108 00264 (morse.go:49)	MOVQ	"".r+344(SP), DX
	0x0110 00272 (morse.go:49)	JNE	789
	0x0116 00278 (morse.go:49)	MOVQ	8(DX), BX
	0x011a 00282 (morse.go:49)	CMPQ	BX, $4096
	0x0121 00289 (morse.go:49)	JLT	789
	0x0127 00295 (morse.go:49)	MOVQ	DX, "".stream+80(SP)
	0x012c 00300 (morse.go:49)	MOVQ	"".&tmpBuf+120(SP), AX
	0x0131 00305 (morse.go:50)	TESTB	AL, (AX)
	0x0133 00307 (morse.go:50)	MOVQ	DX, (SP)
	0x0137 00311 (morse.go:50)	MOVQ	AX, 8(SP)
	0x013c 00316 (morse.go:50)	MOVQ	$2, 16(SP)
	0x0145 00325 (morse.go:50)	MOVQ	$2, 24(SP)
	0x014e 00334 (morse.go:50)	PCDATA	$0, $3
	0x014e 00334 (morse.go:50)	CALL	bufio.(*Reader).Read(SB)
	0x0153 00339 (morse.go:50)	MOVQ	48(SP), AX
	0x0158 00344 (morse.go:50)	MOVQ	40(SP), CX
	0x015d 00349 (morse.go:51)	JMP	482
	0x0162 00354 (morse.go:55)	MOVQ	"".&tmpBuf+120(SP), AX
	0x0167 00359 (morse.go:55)	MOVWLZX	(AX), CX
	0x016a 00362 (morse.go:55)	MOVW	CX, ""..autotmp_30+62(SP)
	0x016f 00367 (morse.go:55)	LEAQ	type.map[[2]uint8]int32(SB), CX
	0x0176 00374 (morse.go:55)	MOVQ	CX, (SP)
	0x017a 00378 (morse.go:55)	MOVQ	"".letters(SB), DX
	0x0181 00385 (morse.go:55)	MOVQ	DX, 8(SP)
	0x0186 00390 (morse.go:55)	LEAQ	""..autotmp_30+62(SP), DX
	0x018b 00395 (morse.go:55)	MOVQ	DX, 16(SP)
	0x0190 00400 (morse.go:55)	PCDATA	$0, $3
	0x0190 00400 (morse.go:55)	CALL	runtime.mapaccess1(SB)
	0x0195 00405 (morse.go:55)	MOVQ	24(SP), AX
	0x019a 00410 (morse.go:55)	MOVL	(AX), AX
	0x019c 00412 (morse.go:55)	MOVL	AX, 8(SP)
	0x01a0 00416 (morse.go:55)	MOVQ	bytes.b·2+104(SP), AX
	0x01a5 00421 (morse.go:55)	MOVQ	AX, (SP)
	0x01a9 00425 (morse.go:55)	PCDATA	$0, $3
	0x01a9 00425 (morse.go:55)	CALL	bytes.(*Buffer).WriteRune(SB)
	0x01ae 00430 (morse.go:55)	MOVQ	"".stream+80(SP), AX
	0x01b3 00435 (morse.go:56)	MOVQ	AX, (SP)
	0x01b7 00439 (morse.go:56)	MOVQ	"".&tmpBuf+120(SP), CX
	0x01bc 00444 (morse.go:56)	MOVQ	CX, 8(SP)
	0x01c1 00449 (morse.go:56)	MOVQ	$2, 16(SP)
	0x01ca 00458 (morse.go:56)	MOVQ	$2, 24(SP)
	0x01d3 00467 (morse.go:56)	PCDATA	$0, $3
	0x01d3 00467 (morse.go:56)	CALL	bufio.(*Reader).Read(SB)
	0x01d8 00472 (morse.go:56)	MOVQ	40(SP), CX
	0x01dd 00477 (morse.go:56)	MOVQ	48(SP), AX
	0x01e2 00482 (morse.go:51)	MOVQ	io.EOF(SB), DX
	0x01e9 00489 (morse.go:51)	CMPQ	DX, CX
	0x01ec 00492 (morse.go:51)	JEQ	589
	0x01ee 00494 (morse.go:52)	TESTQ	CX, CX
	0x01f1 00497 (morse.go:52)	JEQ	354
	0x01f7 00503 (morse.go:53)	JEQ	509
	0x01f9 00505 (morse.go:53)	MOVQ	8(CX), CX
	0x01fd 00509 (morse.go:53)	MOVQ	$0, ""..autotmp_29+128(SP)
	0x0209 00521 (morse.go:53)	MOVQ	$0, ""..autotmp_29+136(SP)
	0x0215 00533 (morse.go:53)	MOVQ	CX, ""..autotmp_29+128(SP)
	0x021d 00541 (morse.go:53)	MOVQ	AX, ""..autotmp_29+136(SP)
	0x0225 00549 (morse.go:53)	LEAQ	""..autotmp_29+128(SP), AX
	0x022d 00557 (morse.go:53)	MOVQ	AX, (SP)
	0x0231 00561 (morse.go:53)	MOVQ	$1, 8(SP)
	0x023a 00570 (morse.go:53)	MOVQ	$1, 16(SP)
	0x0243 00579 (morse.go:53)	PCDATA	$0, $4
	0x0243 00579 (morse.go:53)	CALL	log.Fatal(SB)
	0x0248 00584 (morse.go:52)	JMP	354
	0x024d 00589 (morse.go:52)	MOVQ	AX, "".err.data+96(SP)
	0x0252 00594 (morse.go:52)	MOVQ	CX, "".err.itab+88(SP)
	0x0257 00599 (morse.go:51)	MOVQ	CX, (SP)
	0x025b 00603 (morse.go:51)	MOVQ	AX, 8(SP)
	0x0260 00608 (morse.go:51)	MOVQ	io.EOF+8(SB), DX
	0x0267 00615 (morse.go:51)	MOVQ	DX, 16(SP)
	0x026c 00620 (morse.go:51)	PCDATA	$0, $5
	0x026c 00620 (morse.go:51)	CALL	runtime.ifaceeq(SB)
	0x0271 00625 (morse.go:51)	MOVBLZX	24(SP), AX
	0x0276 00630 (morse.go:51)	TESTB	AL, AL
	0x0278 00632 (morse.go:51)	JNE	649
	0x027a 00634 (morse.go:51)	MOVQ	"".err.data+96(SP), AX
	0x027f 00639 (morse.go:51)	MOVQ	"".err.itab+88(SP), CX
	0x0284 00644 (morse.go:51)	JMP	494
	0x0289 00649 (morse.go:51)	MOVQ	bytes.b·2+104(SP), AX
	0x028e 00654 (morse.go:58)	TESTQ	AX, AX
	0x0291 00657 (morse.go:58)	JEQ	775
	0x0293 00659 (morse.go:58)	MOVQ	24(AX), CX
	0x0297 00663 (morse.go:58)	MOVQ	(AX), DX
	0x029a 00666 (morse.go:58)	MOVQ	8(AX), BX
	0x029e 00670 (morse.go:58)	MOVQ	16(AX), AX
	0x02a2 00674 (morse.go:58)	CMPQ	CX, BX
	0x02a5 00677 (morse.go:58)	JHI	1113
	0x02ab 00683 (morse.go:58)	MOVQ	$0, (SP)
	0x02b3 00691 (morse.go:58)	SUBQ	CX, AX
	0x02b6 00694 (morse.go:58)	MOVQ	AX, SI
	0x02b9 00697 (morse.go:58)	NEGQ	AX
	0x02bc 00700 (morse.go:58)	SARQ	$63, AX
	0x02c0 00704 (morse.go:58)	ANDQ	CX, AX
	0x02c3 00707 (morse.go:58)	ADDQ	DX, AX
	0x02c6 00710 (morse.go:58)	MOVQ	AX, 8(SP)
	0x02cb 00715 (morse.go:58)	SUBQ	CX, BX
	0x02ce 00718 (morse.go:58)	MOVQ	BX, 16(SP)
	0x02d3 00723 (morse.go:58)	MOVQ	SI, 24(SP)
	0x02d8 00728 (morse.go:58)	PCDATA	$0, $6
	0x02d8 00728 (morse.go:58)	CALL	runtime.slicebytetostring(SB)
	0x02dd 00733 (morse.go:58)	MOVQ	32(SP), AX
	0x02e2 00738 (morse.go:58)	MOVQ	40(SP), CX
	0x02e7 00743 (morse.go:58)	MOVQ	AX, "".~r1+352(SP)
	0x02ef 00751 (morse.go:58)	MOVQ	CX, "".~r1+360(SP)
	0x02f7 00759 (morse.go:58)	MOVQ	320(SP), BP
	0x02ff 00767 (morse.go:58)	ADDQ	$328, SP
	0x0306 00774 (morse.go:58)	RET
	0x0307 00775 (morse.go:58)	MOVL	$5, CX
	0x030c 00780 (morse.go:58)	LEAQ	go.string."<nil>"(SB), AX
	0x0313 00787 (morse.go:58)	JMP	743
	0x0315 00789 (morse.go:49)	MOVQ	$0, ""..autotmp_37+232(SP)
	0x0321 00801 (morse.go:49)	LEAQ	""..autotmp_37+240(SP), DI
	0x0329 00809 (morse.go:49)	XORPS	X0, X0
	0x032c 00812 (morse.go:49)	ADDQ	$-48, DI
	0x0330 00816 (morse.go:49)	DUFFZERO	$277
	0x0343 00835 (morse.go:49)	LEAQ	type.uint8(SB), AX
	0x034a 00842 (morse.go:49)	MOVQ	AX, (SP)
	0x034e 00846 (morse.go:49)	MOVQ	$4096, 8(SP)
	0x0357 00855 (morse.go:49)	MOVQ	$4096, 16(SP)
	0x0360 00864 (morse.go:49)	PCDATA	$0, $7
	0x0360 00864 (morse.go:49)	CALL	runtime.makeslice(SB)
	0x0365 00869 (morse.go:49)	MOVQ	40(SP), AX
	0x036a 00874 (morse.go:49)	MOVQ	32(SP), CX
	0x036f 00879 (morse.go:49)	MOVQ	24(SP), DX
	0x0374 00884 (morse.go:49)	MOVQ	$0, ""..autotmp_38+144(SP)
	0x0380 00896 (morse.go:49)	LEAQ	""..autotmp_38+152(SP), DI
	0x0388 00904 (morse.go:49)	XORPS	X0, X0
	0x038b 00907 (morse.go:49)	ADDQ	$-48, DI
	0x038f 00911 (morse.go:49)	DUFFZERO	$277
	0x03a2 00930 (morse.go:49)	MOVQ	DX, ""..autotmp_38+144(SP)
	0x03aa 00938 (morse.go:49)	MOVQ	CX, ""..autotmp_38+152(SP)
	0x03b2 00946 (morse.go:49)	MOVQ	AX, ""..autotmp_38+160(SP)
	0x03ba 00954 (morse.go:49)	MOVQ	"".r+336(SP), AX
	0x03c2 00962 (morse.go:49)	MOVQ	AX, ""..autotmp_38+168(SP)
	0x03ca 00970 (morse.go:49)	MOVQ	"".r+344(SP), AX
	0x03d2 00978 (morse.go:49)	MOVQ	AX, ""..autotmp_38+176(SP)
	0x03da 00986 (morse.go:49)	MOVQ	$-1, ""..autotmp_38+216(SP)
	0x03e6 00998 (morse.go:49)	MOVQ	$-1, ""..autotmp_38+224(SP)
	0x03f2 01010 (morse.go:49)	MOVQ	""..autotmp_38+144(SP), AX
	0x03fa 01018 (morse.go:49)	MOVQ	AX, ""..autotmp_37+232(SP)
	0x0402 01026 (morse.go:49)	LEAQ	""..autotmp_37+240(SP), DI
	0x040a 01034 (morse.go:49)	LEAQ	""..autotmp_38+152(SP), SI
	0x0412 01042 (morse.go:49)	DUFFCOPY	$826
	0x0425 01061 (morse.go:49)	LEAQ	""..autotmp_37+232(SP), DX
	0x042d 01069 (morse.go:49)	JMP	295
	0x0432 01074 (morse.go:49)	MOVL	$0, DX
	0x0437 01079 (morse.go:49)	JMP	272
	0x043c 01084 (morse.go:48)	MOVQ	AX, (SP)
	0x0440 01088 (morse.go:48)	MOVQ	"".buf·2.ptr+112(SP), CX
	0x0445 01093 (morse.go:48)	MOVQ	CX, 8(SP)
	0x044a 01098 (morse.go:48)	PCDATA	$0, $8
	0x044a 01098 (morse.go:48)	CALL	runtime.writebarrierptr(SB)
	0x044f 01103 (morse.go:48)	MOVQ	bytes.b·2+104(SP), AX
	0x0454 01108 (morse.go:48)	JMP	240
	0x0459 01113 (morse.go:58)	PCDATA	$0, $6
	0x0459 01113 (morse.go:58)	CALL	runtime.panicslice(SB)
	0x045e 01118 (morse.go:58)	UNDEF
	0x0460 01120 (morse.go:58)	NOP
	0x0460 01120 (morse.go:46)	PCDATA	$0, $-1
	0x0460 01120 (morse.go:46)	CALL	runtime.morestack_noctxt(SB)
	0x0465 01125 (morse.go:46)	JMP	0
	0x0000 64 48 8b 0c 25 00 00 00 00 48 8d 84 24 38 ff ff  dH..%....H..$8..
	0x0010 ff 48 3b 41 10 0f 86 45 04 00 00 48 81 ec 48 01  .H;A...E...H..H.
	0x0020 00 00 48 89 ac 24 40 01 00 00 48 8d ac 24 40 01  ..H..$@...H..$@.
	0x0030 00 00 0f 57 c0 48 8d bc 24 b8 00 00 00 48 89 6c  ...W.H..$....H.l
	0x0040 24 f0 48 8d 6c 24 f0 e8 00 00 00 00 48 8b 6d 00  $.H.l$......H.m.
	0x0050 0f 11 47 f8 48 8d 05 00 00 00 00 48 89 04 24 e8  ..G.H......H..$.
	0x0060 00 00 00 00 48 8b 44 24 08 48 89 44 24 78 48 8d  ....H.D$.H.D$xH.
	0x0070 0d 00 00 00 00 48 89 0c 24 48 c7 44 24 08 00 00  .....H..$H.D$...
	0x0080 00 00 48 c7 44 24 10 00 00 00 00 e8 00 00 00 00  ..H.D$..........
	0x0090 48 8b 44 24 28 48 89 44 24 48 48 8b 4c 24 20 48  H.D$(H.D$HH.L$ H
	0x00a0 89 4c 24 40 48 8b 54 24 18 48 89 54 24 70 48 8d  .L$@H.T$.H.T$pH.
	0x00b0 1d 00 00 00 00 48 89 1c 24 e8 00 00 00 00 48 8b  .....H..$.....H.
	0x00c0 44 24 08 48 89 44 24 68 48 8b 4c 24 40 48 89 48  D$.H.D$hH.L$@H.H
	0x00d0 08 48 8b 4c 24 48 48 89 48 10 8b 0d 00 00 00 00  .H.L$HH.H.......
	0x00e0 85 c9 0f 85 54 03 00 00 48 8b 4c 24 70 48 89 08  ....T...H.L$pH..
	0x00f0 48 8b 8c 24 50 01 00 00 48 8d 15 00 00 00 00 48  H..$P...H......H
	0x0100 39 d1 0f 85 2a 03 00 00 48 8b 94 24 58 01 00 00  9...*...H..$X...
	0x0110 0f 85 ff 01 00 00 48 8b 5a 08 48 81 fb 00 10 00  ......H.Z.H.....
	0x0120 00 0f 8c ee 01 00 00 48 89 54 24 50 48 8b 44 24  .......H.T$PH.D$
	0x0130 78 84 00 48 89 14 24 48 89 44 24 08 48 c7 44 24  x..H..$H.D$.H.D$
	0x0140 10 02 00 00 00 48 c7 44 24 18 02 00 00 00 e8 00  .....H.D$.......
	0x0150 00 00 00 48 8b 44 24 30 48 8b 4c 24 28 e9 80 00  ...H.D$0H.L$(...
	0x0160 00 00 48 8b 44 24 78 0f b7 08 66 89 4c 24 3e 48  ..H.D$x...f.L$>H
	0x0170 8d 0d 00 00 00 00 48 89 0c 24 48 8b 15 00 00 00  ......H..$H.....
	0x0180 00 48 89 54 24 08 48 8d 54 24 3e 48 89 54 24 10  .H.T$.H.T$>H.T$.
	0x0190 e8 00 00 00 00 48 8b 44 24 18 8b 00 89 44 24 08  .....H.D$....D$.
	0x01a0 48 8b 44 24 68 48 89 04 24 e8 00 00 00 00 48 8b  H.D$hH..$.....H.
	0x01b0 44 24 50 48 89 04 24 48 8b 4c 24 78 48 89 4c 24  D$PH..$H.L$xH.L$
	0x01c0 08 48 c7 44 24 10 02 00 00 00 48 c7 44 24 18 02  .H.D$.....H.D$..
	0x01d0 00 00 00 e8 00 00 00 00 48 8b 4c 24 28 48 8b 44  ........H.L$(H.D
	0x01e0 24 30 48 8b 15 00 00 00 00 48 39 ca 74 5f 48 85  $0H......H9.t_H.
	0x01f0 c9 0f 84 6b ff ff ff 74 04 48 8b 49 08 48 c7 84  ...k...t.H.I.H..
	0x0200 24 80 00 00 00 00 00 00 00 48 c7 84 24 88 00 00  $........H..$...
	0x0210 00 00 00 00 00 48 89 8c 24 80 00 00 00 48 89 84  .....H..$....H..
	0x0220 24 88 00 00 00 48 8d 84 24 80 00 00 00 48 89 04  $....H..$....H..
	0x0230 24 48 c7 44 24 08 01 00 00 00 48 c7 44 24 10 01  $H.D$.....H.D$..
	0x0240 00 00 00 e8 00 00 00 00 e9 15 ff ff ff 48 89 44  .............H.D
	0x0250 24 60 48 89 4c 24 58 48 89 0c 24 48 89 44 24 08  $`H.L$XH..$H.D$.
	0x0260 48 8b 15 00 00 00 00 48 89 54 24 10 e8 00 00 00  H......H.T$.....
	0x0270 00 0f b6 44 24 18 84 c0 75 0f 48 8b 44 24 60 48  ...D$...u.H.D$`H
	0x0280 8b 4c 24 58 e9 65 ff ff ff 48 8b 44 24 68 48 85  .L$X.e...H.D$hH.
	0x0290 c0 74 74 48 8b 48 18 48 8b 10 48 8b 58 08 48 8b  .ttH.H.H..H.X.H.
	0x02a0 40 10 48 39 d9 0f 87 ae 01 00 00 48 c7 04 24 00  @.H9.......H..$.
	0x02b0 00 00 00 48 29 c8 48 89 c6 48 f7 d8 48 c1 f8 3f  ...H).H..H..H..?
	0x02c0 48 21 c8 48 01 d0 48 89 44 24 08 48 29 cb 48 89  H!.H..H.D$.H).H.
	0x02d0 5c 24 10 48 89 74 24 18 e8 00 00 00 00 48 8b 44  \$.H.t$......H.D
	0x02e0 24 20 48 8b 4c 24 28 48 89 84 24 60 01 00 00 48  $ H.L$(H..$`...H
	0x02f0 89 8c 24 68 01 00 00 48 8b ac 24 40 01 00 00 48  ..$h...H..$@...H
	0x0300 81 c4 48 01 00 00 c3 b9 05 00 00 00 48 8d 05 00  ..H.........H...
	0x0310 00 00 00 eb d2 48 c7 84 24 e8 00 00 00 00 00 00  .....H..$.......
	0x0320 00 48 8d bc 24 f0 00 00 00 0f 57 c0 48 83 c7 d0  .H..$.....W.H...
	0x0330 48 89 6c 24 f0 48 8d 6c 24 f0 e8 00 00 00 00 48  H.l$.H.l$......H
	0x0340 8b 6d 00 48 8d 05 00 00 00 00 48 89 04 24 48 c7  .m.H......H..$H.
	0x0350 44 24 08 00 10 00 00 48 c7 44 24 10 00 10 00 00  D$.....H.D$.....
	0x0360 e8 00 00 00 00 48 8b 44 24 28 48 8b 4c 24 20 48  .....H.D$(H.L$ H
	0x0370 8b 54 24 18 48 c7 84 24 90 00 00 00 00 00 00 00  .T$.H..$........
	0x0380 48 8d bc 24 98 00 00 00 0f 57 c0 48 83 c7 d0 48  H..$.....W.H...H
	0x0390 89 6c 24 f0 48 8d 6c 24 f0 e8 00 00 00 00 48 8b  .l$.H.l$......H.
	0x03a0 6d 00 48 89 94 24 90 00 00 00 48 89 8c 24 98 00  m.H..$....H..$..
	0x03b0 00 00 48 89 84 24 a0 00 00 00 48 8b 84 24 50 01  ..H..$....H..$P.
	0x03c0 00 00 48 89 84 24 a8 00 00 00 48 8b 84 24 58 01  ..H..$....H..$X.
	0x03d0 00 00 48 89 84 24 b0 00 00 00 48 c7 84 24 d8 00  ..H..$....H..$..
	0x03e0 00 00 ff ff ff ff 48 c7 84 24 e0 00 00 00 ff ff  ......H..$......
	0x03f0 ff ff 48 8b 84 24 90 00 00 00 48 89 84 24 e8 00  ..H..$....H..$..
	0x0400 00 00 48 8d bc 24 f0 00 00 00 48 8d b4 24 98 00  ..H..$....H..$..
	0x0410 00 00 48 89 6c 24 f0 48 8d 6c 24 f0 e8 00 00 00  ..H.l$.H.l$.....
	0x0420 00 48 8b 6d 00 48 8d 94 24 e8 00 00 00 e9 f5 fc  .H.m.H..$.......
	0x0430 ff ff ba 00 00 00 00 e9 d4 fc ff ff 48 89 04 24  ............H..$
	0x0440 48 8b 4c 24 70 48 89 4c 24 08 e8 00 00 00 00 48  H.L$pH.L$......H
	0x0450 8b 44 24 68 e9 97 fc ff ff e8 00 00 00 00 0f 0b  .D$h............
	0x0460 e8 00 00 00 00 e9 96 fb ff ff                    ..........
	rel 5+4 t=16 TLS+0
	rel 72+4 t=8 runtime.duffzero+277
	rel 87+4 t=15 type.[2]uint8+0
	rel 96+4 t=8 runtime.newobject+0
	rel 113+4 t=15 type.uint8+0
	rel 140+4 t=8 runtime.makeslice+0
	rel 177+4 t=15 type.bytes.Buffer+0
	rel 186+4 t=8 runtime.newobject+0
	rel 220+4 t=15 runtime.writeBarrier+0
	rel 251+4 t=15 go.itab.*bufio.Reader,io.Reader+0
	rel 335+4 t=8 bufio.(*Reader).Read+0
	rel 370+4 t=15 type.map[[2]uint8]int32+0
	rel 381+4 t=15 "".letters+0
	rel 401+4 t=8 runtime.mapaccess1+0
	rel 426+4 t=8 bytes.(*Buffer).WriteRune+0
	rel 468+4 t=8 bufio.(*Reader).Read+0
	rel 485+4 t=15 io.EOF+0
	rel 580+4 t=8 log.Fatal+0
	rel 611+4 t=15 io.EOF+8
	rel 621+4 t=8 runtime.ifaceeq+0
	rel 729+4 t=8 runtime.slicebytetostring+0
	rel 783+4 t=15 go.string."<nil>"+0
	rel 827+4 t=8 runtime.duffzero+277
	rel 838+4 t=15 type.uint8+0
	rel 865+4 t=8 runtime.makeslice+0
	rel 922+4 t=8 runtime.duffzero+277
	rel 1053+4 t=8 runtime.duffcopy+826
	rel 1099+4 t=8 runtime.writebarrierptr+0
	rel 1114+4 t=8 runtime.panicslice+0
	rel 1121+4 t=8 runtime.morestack_noctxt+0
"".decodeToChannel STEXT size=161 args=0x18 locals=0x38
	0x0000 00000 (morse.go:61)	TEXT	"".decodeToChannel(SB), $56-24
	0x0000 00000 (morse.go:61)	MOVQ	(TLS), CX
	0x0009 00009 (morse.go:61)	CMPQ	SP, 16(CX)
	0x000d 00013 (morse.go:61)	JLS	151
	0x0013 00019 (morse.go:61)	SUBQ	$56, SP
	0x0017 00023 (morse.go:61)	MOVQ	BP, 48(SP)
	0x001c 00028 (morse.go:61)	LEAQ	48(SP), BP
	0x0021 00033 (morse.go:61)	FUNCDATA	$0, gclocals·deec81f743b28bda3aa5e3128573b664(SB)
	0x0021 00033 (morse.go:61)	FUNCDATA	$1, gclocals·0c09ae43b0fb5060519fb41a606c0095(SB)
	0x0021 00033 (morse.go:61)	MOVQ	"".r+64(SP), AX
	0x0026 00038 (morse.go:62)	MOVQ	AX, (SP)
	0x002a 00042 (morse.go:61)	MOVQ	"".r+72(SP), AX
	0x002f 00047 (morse.go:62)	MOVQ	AX, 8(SP)
	0x0034 00052 (morse.go:62)	PCDATA	$0, $1
	0x0034 00052 (morse.go:62)	CALL	"".decode(SB)
	0x0039 00057 (morse.go:62)	MOVQ	16(SP), AX
	0x003e 00062 (morse.go:62)	MOVQ	24(SP), CX
	0x0043 00067 (morse.go:62)	MOVQ	AX, ""..autotmp_2+32(SP)
	0x0048 00072 (morse.go:62)	MOVQ	CX, ""..autotmp_2+40(SP)
	0x004d 00077 (morse.go:61)	MOVQ	"".c+80(SP), AX
	0x0052 00082 (morse.go:62)	MOVQ	AX, (SP)
	0x0056 00086 (morse.go:62)	LEAQ	""..autotmp_2+32(SP), AX
	0x005b 00091 (morse.go:62)	MOVQ	AX, 8(SP)
	0x0060 00096 (morse.go:62)	PCDATA	$0, $2
	0x0060 00096 (morse.go:62)	CALL	runtime.chansend1(SB)
	0x0065 00101 (morse.go:63)	PCDATA	$0, $3
	0x0065 00101 (morse.go:63)	CALL	runtime.printlock(SB)
	0x006a 00106 (morse.go:63)	LEAQ	go.string."HEllo"(SB), AX
	0x0071 00113 (morse.go:63)	MOVQ	AX, (SP)
	0x0075 00117 (morse.go:63)	MOVQ	$5, 8(SP)
	0x007e 00126 (morse.go:63)	PCDATA	$0, $3
	0x007e 00126 (morse.go:63)	CALL	runtime.printstring(SB)
	0x0083 00131 (morse.go:63)	PCDATA	$0, $3
	0x0083 00131 (morse.go:63)	CALL	runtime.printnl(SB)
	0x0088 00136 (morse.go:63)	PCDATA	$0, $3
	0x0088 00136 (morse.go:63)	CALL	runtime.printunlock(SB)
	0x008d 00141 (morse.go:64)	MOVQ	48(SP), BP
	0x0092 00146 (morse.go:64)	ADDQ	$56, SP
	0x0096 00150 (morse.go:64)	RET
	0x0097 00151 (morse.go:64)	NOP
	0x0097 00151 (morse.go:61)	PCDATA	$0, $-1
	0x0097 00151 (morse.go:61)	CALL	runtime.morestack_noctxt(SB)
	0x009c 00156 (morse.go:61)	JMP	0
	0x0000 64 48 8b 0c 25 00 00 00 00 48 3b 61 10 0f 86 84  dH..%....H;a....
	0x0010 00 00 00 48 83 ec 38 48 89 6c 24 30 48 8d 6c 24  ...H..8H.l$0H.l$
	0x0020 30 48 8b 44 24 40 48 89 04 24 48 8b 44 24 48 48  0H.D$@H..$H.D$HH
	0x0030 89 44 24 08 e8 00 00 00 00 48 8b 44 24 10 48 8b  .D$......H.D$.H.
	0x0040 4c 24 18 48 89 44 24 20 48 89 4c 24 28 48 8b 44  L$.H.D$ H.L$(H.D
	0x0050 24 50 48 89 04 24 48 8d 44 24 20 48 89 44 24 08  $PH..$H.D$ H.D$.
	0x0060 e8 00 00 00 00 e8 00 00 00 00 48 8d 05 00 00 00  ..........H.....
	0x0070 00 48 89 04 24 48 c7 44 24 08 05 00 00 00 e8 00  .H..$H.D$.......
	0x0080 00 00 00 e8 00 00 00 00 e8 00 00 00 00 48 8b 6c  .............H.l
	0x0090 24 30 48 83 c4 38 c3 e8 00 00 00 00 e9 5f ff ff  $0H..8......._..
	0x00a0 ff                                               .
	rel 5+4 t=16 TLS+0
	rel 53+4 t=8 "".decode+0
	rel 97+4 t=8 runtime.chansend1+0
	rel 102+4 t=8 runtime.printlock+0
	rel 109+4 t=15 go.string."HEllo"+0
	rel 127+4 t=8 runtime.printstring+0
	rel 132+4 t=8 runtime.printnl+0
	rel 137+4 t=8 runtime.printunlock+0
	rel 152+4 t=8 runtime.morestack_noctxt+0
"".encode STEXT size=619 args=0x28 locals=0xd0
	0x0000 00000 (morse.go:66)	TEXT	"".encode(SB), $208-40
	0x0000 00000 (morse.go:66)	MOVQ	(TLS), CX
	0x0009 00009 (morse.go:66)	LEAQ	-80(SP), AX
	0x000e 00014 (morse.go:66)	CMPQ	AX, 16(CX)
	0x0012 00018 (morse.go:66)	JLS	609
	0x0018 00024 (morse.go:66)	SUBQ	$208, SP
	0x001f 00031 (morse.go:66)	MOVQ	BP, 200(SP)
	0x0027 00039 (morse.go:66)	LEAQ	200(SP), BP
	0x002f 00047 (morse.go:66)	FUNCDATA	$0, gclocals·766db2c643d6a4e08ea5f900dc04308d(SB)
	0x002f 00047 (morse.go:66)	FUNCDATA	$1, gclocals·6b1e73517a497ba9455dc0d96209dd50(SB)
	0x002f 00047 (morse.go:66)	MOVQ	"".str+216(SP), AX
	0x0037 00055 (morse.go:67)	MOVQ	AX, (SP)
	0x003b 00059 (morse.go:66)	MOVQ	"".str+224(SP), AX
	0x0043 00067 (morse.go:67)	MOVQ	AX, 8(SP)
	0x0048 00072 (morse.go:67)	PCDATA	$0, $0
	0x0048 00072 (morse.go:67)	CALL	strings.ToLower(SB)
	0x004d 00077 (morse.go:67)	MOVQ	24(SP), AX
	0x0052 00082 (morse.go:67)	MOVQ	AX, "".str+224(SP)
	0x005a 00090 (morse.go:67)	MOVQ	16(SP), CX
	0x005f 00095 (morse.go:67)	MOVQ	CX, "".str+216(SP)
	0x0067 00103 (morse.go:67)	LEAQ	type.uint8(SB), DX
	0x006e 00110 (morse.go:68)	MOVQ	DX, (SP)
	0x0072 00114 (morse.go:68)	MOVQ	$0, 8(SP)
	0x007b 00123 (morse.go:68)	MOVQ	$0, 16(SP)
	0x0084 00132 (morse.go:68)	PCDATA	$0, $0
	0x0084 00132 (morse.go:68)	CALL	runtime.makeslice(SB)
	0x0089 00137 (morse.go:68)	MOVQ	24(SP), AX
	0x008e 00142 (morse.go:68)	MOVQ	AX, "".buf·2.ptr+96(SP)
	0x0093 00147 (morse.go:68)	MOVQ	40(SP), CX
	0x0098 00152 (morse.go:68)	MOVQ	CX, "".buf·2.cap+72(SP)
	0x009d 00157 (morse.go:68)	MOVQ	32(SP), DX
	0x00a2 00162 (morse.go:68)	MOVQ	DX, "".buf·2.len+64(SP)
	0x00a7 00167 (morse.go:68)	LEAQ	type.bytes.Buffer(SB), BX
	0x00ae 00174 (morse.go:68)	MOVQ	BX, (SP)
	0x00b2 00178 (morse.go:68)	PCDATA	$0, $1
	0x00b2 00178 (morse.go:68)	CALL	runtime.newobject(SB)
	0x00b7 00183 (morse.go:68)	MOVQ	8(SP), AX
	0x00bc 00188 (morse.go:68)	MOVQ	AX, bytes.b·2+88(SP)
	0x00c1 00193 (morse.go:68)	MOVQ	"".buf·2.len+64(SP), CX
	0x00c6 00198 (morse.go:68)	MOVQ	CX, 8(AX)
	0x00ca 00202 (morse.go:68)	MOVQ	"".buf·2.cap+72(SP), CX
	0x00cf 00207 (morse.go:68)	MOVQ	CX, 16(AX)
	0x00d3 00211 (morse.go:68)	MOVL	runtime.writeBarrier(SB), CX
	0x00d9 00217 (morse.go:68)	TESTL	CX, CX
	0x00db 00219 (morse.go:68)	JNE	573
	0x00e1 00225 (morse.go:68)	MOVQ	"".buf·2.ptr+96(SP), CX
	0x00e6 00230 (morse.go:68)	MOVQ	CX, (AX)
	0x00e9 00233 (morse.go:68)	MOVL	$0, CX
	0x00eb 00235 (morse.go:69)	JMP	338
	0x00ed 00237 (morse.go:69)	LEAQ	""..autotmp_13+104(SP), AX
	0x00f2 00242 (morse.go:70)	MOVQ	AX, (SP)
	0x00f6 00246 (morse.go:70)	PCDATA	$0, $2
	0x00f6 00246 (morse.go:70)	CALL	runtime.mapiternext(SB)
	0x00fb 00251 (morse.go:70)	MOVQ	""..autotmp_13+104(SP), AX
	0x0100 00256 (morse.go:70)	TESTQ	AX, AX
	0x0103 00259 (morse.go:70)	JEQ	328
	0x0105 00261 (morse.go:70)	MOVQ	""..autotmp_13+112(SP), CX
	0x010a 00266 (morse.go:70)	MOVL	(CX), CX
	0x010c 00268 (morse.go:70)	MOVWLZX	(AX), AX
	0x010f 00271 (morse.go:70)	MOVW	AX, "".key+58(SP)
	0x0114 00276 (morse.go:70)	MOVL	"".letter+60(SP), AX
	0x0118 00280 (morse.go:71)	CMPL	AX, CX
	0x011a 00282 (morse.go:71)	JNE	237
	0x011c 00284 (morse.go:71)	MOVQ	bytes.b·2+88(SP), AX
	0x0121 00289 (morse.go:72)	MOVQ	AX, (SP)
	0x0125 00293 (morse.go:72)	LEAQ	"".key+58(SP), CX
	0x012a 00298 (morse.go:72)	MOVQ	CX, 8(SP)
	0x012f 00303 (morse.go:72)	MOVQ	$2, 16(SP)
	0x0138 00312 (morse.go:72)	MOVQ	$2, 24(SP)
	0x0141 00321 (morse.go:72)	PCDATA	$0, $2
	0x0141 00321 (morse.go:72)	CALL	bytes.(*Buffer).Write(SB)
	0x0146 00326 (morse.go:71)	JMP	237
	0x0148 00328 (morse.go:70)	MOVQ	bytes.b·2+88(SP), AX
	0x014d 00333 (morse.go:70)	MOVQ	""..autotmp_29+80(SP), CX
	0x0152 00338 (morse.go:69)	MOVQ	"".str+224(SP), DX
	0x015a 00346 (morse.go:69)	CMPQ	CX, DX
	0x015d 00349 (morse.go:69)	JGE	491
	0x0163 00355 (morse.go:69)	MOVQ	"".str+216(SP), BX
	0x016b 00363 (morse.go:69)	MOVBLZX	(BX)(CX*1), SI
	0x016f 00367 (morse.go:69)	CMPL	SI, $128
	0x0175 00373 (morse.go:69)	JGE	461
	0x0177 00375 (morse.go:69)	INCQ	CX
	0x017a 00378 (morse.go:69)	MOVL	SI, "".letter+60(SP)
	0x017e 00382 (morse.go:69)	MOVQ	CX, ""..autotmp_29+80(SP)
	0x0183 00387 (morse.go:70)	MOVQ	"".letters(SB), AX
	0x018a 00394 (morse.go:70)	LEAQ	""..autotmp_13+104(SP), DI
	0x018f 00399 (morse.go:70)	XORPS	X0, X0
	0x0192 00402 (morse.go:70)	ADDQ	$-32, DI
	0x0196 00406 (morse.go:70)	DUFFZERO	$273
	0x01a9 00425 (morse.go:70)	LEAQ	type.map[[2]uint8]int32(SB), DX
	0x01b0 00432 (morse.go:70)	MOVQ	DX, (SP)
	0x01b4 00436 (morse.go:70)	MOVQ	AX, 8(SP)
	0x01b9 00441 (morse.go:70)	LEAQ	""..autotmp_13+104(SP), AX
	0x01be 00446 (morse.go:70)	MOVQ	AX, 16(SP)
	0x01c3 00451 (morse.go:70)	PCDATA	$0, $2
	0x01c3 00451 (morse.go:70)	CALL	runtime.mapiterinit(SB)
	0x01c8 00456 (morse.go:70)	JMP	251
	0x01cd 00461 (morse.go:69)	MOVQ	BX, (SP)
	0x01d1 00465 (morse.go:69)	MOVQ	DX, 8(SP)
	0x01d6 00470 (morse.go:69)	MOVQ	CX, 16(SP)
	0x01db 00475 (morse.go:69)	PCDATA	$0, $3
	0x01db 00475 (morse.go:69)	CALL	runtime.decoderune(SB)
	0x01e0 00480 (morse.go:69)	MOVL	24(SP), SI
	0x01e4 00484 (morse.go:69)	MOVQ	32(SP), CX
	0x01e9 00489 (morse.go:69)	JMP	378
	0x01eb 00491 (morse.go:76)	MOVQ	16(AX), CX
	0x01ef 00495 (morse.go:76)	MOVQ	(AX), DX
	0x01f2 00498 (morse.go:76)	MOVQ	8(AX), BX
	0x01f6 00502 (morse.go:76)	MOVQ	24(AX), AX
	0x01fa 00506 (morse.go:76)	CMPQ	AX, BX
	0x01fd 00509 (morse.go:76)	JHI	602
	0x01ff 00511 (morse.go:76)	SUBQ	AX, CX
	0x0202 00514 (morse.go:76)	MOVQ	CX, SI
	0x0205 00517 (morse.go:76)	NEGQ	CX
	0x0208 00520 (morse.go:76)	SARQ	$63, CX
	0x020c 00524 (morse.go:76)	ANDQ	AX, CX
	0x020f 00527 (morse.go:76)	ADDQ	DX, CX
	0x0212 00530 (morse.go:76)	MOVQ	CX, "".~r1+232(SP)
	0x021a 00538 (morse.go:76)	SUBQ	AX, BX
	0x021d 00541 (morse.go:76)	MOVQ	BX, "".~r1+240(SP)
	0x0225 00549 (morse.go:76)	MOVQ	SI, "".~r1+248(SP)
	0x022d 00557 (morse.go:76)	MOVQ	200(SP), BP
	0x0235 00565 (morse.go:76)	ADDQ	$208, SP
	0x023c 00572 (morse.go:76)	RET
	0x023d 00573 (morse.go:68)	MOVQ	AX, (SP)
	0x0241 00577 (morse.go:68)	MOVQ	"".buf·2.ptr+96(SP), CX
	0x0246 00582 (morse.go:68)	MOVQ	CX, 8(SP)
	0x024b 00587 (morse.go:68)	PCDATA	$0, $3
	0x024b 00587 (morse.go:68)	CALL	runtime.writebarrierptr(SB)
	0x0250 00592 (morse.go:68)	MOVQ	bytes.b·2+88(SP), AX
	0x0255 00597 (morse.go:68)	JMP	233
	0x025a 00602 (morse.go:76)	PCDATA	$0, $4
	0x025a 00602 (morse.go:76)	CALL	runtime.panicslice(SB)
	0x025f 00607 (morse.go:76)	UNDEF
	0x0261 00609 (morse.go:76)	NOP
	0x0261 00609 (morse.go:66)	PCDATA	$0, $-1
	0x0261 00609 (morse.go:66)	CALL	runtime.morestack_noctxt(SB)
	0x0266 00614 (morse.go:66)	JMP	0
	0x0000 64 48 8b 0c 25 00 00 00 00 48 8d 44 24 b0 48 3b  dH..%....H.D$.H;
	0x0010 41 10 0f 86 49 02 00 00 48 81 ec d0 00 00 00 48  A...I...H......H
	0x0020 89 ac 24 c8 00 00 00 48 8d ac 24 c8 00 00 00 48  ..$....H..$....H
	0x0030 8b 84 24 d8 00 00 00 48 89 04 24 48 8b 84 24 e0  ..$....H..$H..$.
	0x0040 00 00 00 48 89 44 24 08 e8 00 00 00 00 48 8b 44  ...H.D$......H.D
	0x0050 24 18 48 89 84 24 e0 00 00 00 48 8b 4c 24 10 48  $.H..$....H.L$.H
	0x0060 89 8c 24 d8 00 00 00 48 8d 15 00 00 00 00 48 89  ..$....H......H.
	0x0070 14 24 48 c7 44 24 08 00 00 00 00 48 c7 44 24 10  .$H.D$.....H.D$.
	0x0080 00 00 00 00 e8 00 00 00 00 48 8b 44 24 18 48 89  .........H.D$.H.
	0x0090 44 24 60 48 8b 4c 24 28 48 89 4c 24 48 48 8b 54  D$`H.L$(H.L$HH.T
	0x00a0 24 20 48 89 54 24 40 48 8d 1d 00 00 00 00 48 89  $ H.T$@H......H.
	0x00b0 1c 24 e8 00 00 00 00 48 8b 44 24 08 48 89 44 24  .$.....H.D$.H.D$
	0x00c0 58 48 8b 4c 24 40 48 89 48 08 48 8b 4c 24 48 48  XH.L$@H.H.H.L$HH
	0x00d0 89 48 10 8b 0d 00 00 00 00 85 c9 0f 85 5c 01 00  .H...........\..
	0x00e0 00 48 8b 4c 24 60 48 89 08 31 c9 eb 65 48 8d 44  .H.L$`H..1..eH.D
	0x00f0 24 68 48 89 04 24 e8 00 00 00 00 48 8b 44 24 68  $hH..$.....H.D$h
	0x0100 48 85 c0 74 43 48 8b 4c 24 70 8b 09 0f b7 00 66  H..tCH.L$p.....f
	0x0110 89 44 24 3a 8b 44 24 3c 39 c8 75 d1 48 8b 44 24  .D$:.D$<9.u.H.D$
	0x0120 58 48 89 04 24 48 8d 4c 24 3a 48 89 4c 24 08 48  XH..$H.L$:H.L$.H
	0x0130 c7 44 24 10 02 00 00 00 48 c7 44 24 18 02 00 00  .D$.....H.D$....
	0x0140 00 e8 00 00 00 00 eb a5 48 8b 44 24 58 48 8b 4c  ........H.D$XH.L
	0x0150 24 50 48 8b 94 24 e0 00 00 00 48 39 d1 0f 8d 88  $PH..$....H9....
	0x0160 00 00 00 48 8b 9c 24 d8 00 00 00 0f b6 34 0b 81  ...H..$......4..
	0x0170 fe 80 00 00 00 7d 56 48 ff c1 89 74 24 3c 48 89  .....}VH...t$<H.
	0x0180 4c 24 50 48 8b 05 00 00 00 00 48 8d 7c 24 68 0f  L$PH......H.|$h.
	0x0190 57 c0 48 83 c7 e0 48 89 6c 24 f0 48 8d 6c 24 f0  W.H...H.l$.H.l$.
	0x01a0 e8 00 00 00 00 48 8b 6d 00 48 8d 15 00 00 00 00  .....H.m.H......
	0x01b0 48 89 14 24 48 89 44 24 08 48 8d 44 24 68 48 89  H..$H.D$.H.D$hH.
	0x01c0 44 24 10 e8 00 00 00 00 e9 2e ff ff ff 48 89 1c  D$...........H..
	0x01d0 24 48 89 54 24 08 48 89 4c 24 10 e8 00 00 00 00  $H.T$.H.L$......
	0x01e0 8b 74 24 18 48 8b 4c 24 20 eb 8f 48 8b 48 10 48  .t$.H.L$ ..H.H.H
	0x01f0 8b 10 48 8b 58 08 48 8b 40 18 48 39 d8 77 5b 48  ..H.X.H.@.H9.w[H
	0x0200 29 c1 48 89 ce 48 f7 d9 48 c1 f9 3f 48 21 c1 48  ).H..H..H..?H!.H
	0x0210 01 d1 48 89 8c 24 e8 00 00 00 48 29 c3 48 89 9c  ..H..$....H).H..
	0x0220 24 f0 00 00 00 48 89 b4 24 f8 00 00 00 48 8b ac  $....H..$....H..
	0x0230 24 c8 00 00 00 48 81 c4 d0 00 00 00 c3 48 89 04  $....H.......H..
	0x0240 24 48 8b 4c 24 60 48 89 4c 24 08 e8 00 00 00 00  $H.L$`H.L$......
	0x0250 48 8b 44 24 58 e9 8f fe ff ff e8 00 00 00 00 0f  H.D$X...........
	0x0260 0b e8 00 00 00 00 e9 95 fd ff ff                 ...........
	rel 5+4 t=16 TLS+0
	rel 73+4 t=8 strings.ToLower+0
	rel 106+4 t=15 type.uint8+0
	rel 133+4 t=8 runtime.makeslice+0
	rel 170+4 t=15 type.bytes.Buffer+0
	rel 179+4 t=8 runtime.newobject+0
	rel 213+4 t=15 runtime.writeBarrier+0
	rel 247+4 t=8 runtime.mapiternext+0
	rel 322+4 t=8 bytes.(*Buffer).Write+0
	rel 390+4 t=15 "".letters+0
	rel 417+4 t=8 runtime.duffzero+273
	rel 428+4 t=15 type.map[[2]uint8]int32+0
	rel 452+4 t=8 runtime.mapiterinit+0
	rel 476+4 t=8 runtime.decoderune+0
	rel 588+4 t=8 runtime.writebarrierptr+0
	rel 603+4 t=8 runtime.panicslice+0
	rel 610+4 t=8 runtime.morestack_noctxt+0
"".createTestData STEXT size=380 args=0x18 locals=0x68
	0x0000 00000 (morse.go:79)	TEXT	"".createTestData(SB), $104-24
	0x0000 00000 (morse.go:79)	MOVQ	(TLS), CX
	0x0009 00009 (morse.go:79)	CMPQ	SP, 16(CX)
	0x000d 00013 (morse.go:79)	JLS	370
	0x0013 00019 (morse.go:79)	SUBQ	$104, SP
	0x0017 00023 (morse.go:79)	MOVQ	BP, 96(SP)
	0x001c 00028 (morse.go:79)	LEAQ	96(SP), BP
	0x0021 00033 (morse.go:79)	FUNCDATA	$0, gclocals·cadea2e49003779a155f5f8fb1f0fe78(SB)
	0x0021 00033 (morse.go:79)	FUNCDATA	$1, gclocals·9a26515dfaeddd28bcbc040f1199f48d(SB)
	0x0021 00033 (morse.go:79)	LEAQ	type.uint8(SB), AX
	0x0028 00040 (morse.go:80)	MOVQ	AX, (SP)
	0x002c 00044 (morse.go:80)	MOVQ	$0, 8(SP)
	0x0035 00053 (morse.go:80)	MOVQ	$0, 16(SP)
	0x003e 00062 (morse.go:80)	PCDATA	$0, $0
	0x003e 00062 (morse.go:80)	CALL	runtime.makeslice(SB)
	0x0043 00067 (morse.go:80)	MOVQ	40(SP), AX
	0x0048 00072 (morse.go:80)	MOVQ	AX, "".buf·2.cap+72(SP)
	0x004d 00077 (morse.go:80)	MOVQ	32(SP), CX
	0x0052 00082 (morse.go:80)	MOVQ	CX, "".buf·2.len+64(SP)
	0x0057 00087 (morse.go:80)	MOVQ	24(SP), DX
	0x005c 00092 (morse.go:80)	MOVQ	DX, "".buf·2.ptr+88(SP)
	0x0061 00097 (morse.go:80)	LEAQ	type.bytes.Buffer(SB), BX
	0x0068 00104 (morse.go:80)	MOVQ	BX, (SP)
	0x006c 00108 (morse.go:80)	PCDATA	$0, $1
	0x006c 00108 (morse.go:80)	CALL	runtime.newobject(SB)
	0x0071 00113 (morse.go:80)	MOVQ	8(SP), AX
	0x0076 00118 (morse.go:80)	MOVQ	AX, bytes.b·2+80(SP)
	0x007b 00123 (morse.go:80)	MOVQ	"".buf·2.len+64(SP), CX
	0x0080 00128 (morse.go:80)	MOVQ	CX, 8(AX)
	0x0084 00132 (morse.go:80)	MOVQ	"".buf·2.cap+72(SP), CX
	0x0089 00137 (morse.go:80)	MOVQ	CX, 16(AX)
	0x008d 00141 (morse.go:80)	MOVL	runtime.writeBarrier(SB), CX
	0x0093 00147 (morse.go:80)	TESTL	CX, CX
	0x0095 00149 (morse.go:80)	JNE	334
	0x009b 00155 (morse.go:80)	MOVQ	"".buf·2.ptr+88(SP), CX
	0x00a0 00160 (morse.go:80)	MOVQ	CX, (AX)
	0x00a3 00163 (morse.go:80)	MOVL	$0, CX
	0x00a5 00165 (morse.go:81)	JMP	255
	0x00a7 00167 (morse.go:81)	MOVQ	CX, "".i+56(SP)
	0x00ac 00172 (morse.go:81)	LEAQ	go.string."apple "(SB), AX
	0x00b3 00179 (morse.go:82)	MOVQ	AX, (SP)
	0x00b7 00183 (morse.go:82)	MOVQ	$6, 8(SP)
	0x00c0 00192 (morse.go:82)	PCDATA	$0, $2
	0x00c0 00192 (morse.go:82)	CALL	"".encode(SB)
	0x00c5 00197 (morse.go:82)	MOVQ	32(SP), AX
	0x00ca 00202 (morse.go:82)	MOVQ	24(SP), CX
	0x00cf 00207 (morse.go:82)	MOVQ	16(SP), DX
	0x00d4 00212 (morse.go:82)	MOVQ	bytes.b·2+80(SP), BX
	0x00d9 00217 (morse.go:82)	MOVQ	BX, (SP)
	0x00dd 00221 (morse.go:82)	MOVQ	DX, 8(SP)
	0x00e2 00226 (morse.go:82)	MOVQ	CX, 16(SP)
	0x00e7 00231 (morse.go:82)	MOVQ	AX, 24(SP)
	0x00ec 00236 (morse.go:82)	PCDATA	$0, $2
	0x00ec 00236 (morse.go:82)	CALL	bytes.(*Buffer).Write(SB)
	0x00f1 00241 (morse.go:82)	MOVQ	"".i+56(SP), AX
	0x00f6 00246 (morse.go:81)	LEAQ	1(AX), CX
	0x00fa 00250 (morse.go:81)	MOVQ	bytes.b·2+80(SP), AX
	0x00ff 00255 (morse.go:81)	CMPQ	CX, $1000000
	0x0106 00262 (morse.go:81)	JLT	167
	0x0108 00264 (morse.go:84)	MOVQ	24(AX), CX
	0x010c 00268 (morse.go:84)	MOVQ	(AX), DX
	0x010f 00271 (morse.go:84)	MOVQ	8(AX), BX
	0x0113 00275 (morse.go:84)	MOVQ	16(AX), AX
	0x0117 00279 (morse.go:84)	CMPQ	CX, BX
	0x011a 00282 (morse.go:84)	JHI	363
	0x011c 00284 (morse.go:84)	SUBQ	CX, AX
	0x011f 00287 (morse.go:84)	MOVQ	AX, SI
	0x0122 00290 (morse.go:84)	NEGQ	AX
	0x0125 00293 (morse.go:84)	SARQ	$63, AX
	0x0129 00297 (morse.go:84)	ANDQ	CX, AX
	0x012c 00300 (morse.go:84)	ADDQ	DX, AX
	0x012f 00303 (morse.go:84)	MOVQ	AX, "".~r0+112(SP)
	0x0134 00308 (morse.go:84)	SUBQ	CX, BX
	0x0137 00311 (morse.go:84)	MOVQ	BX, "".~r0+120(SP)
	0x013c 00316 (morse.go:84)	MOVQ	SI, "".~r0+128(SP)
	0x0144 00324 (morse.go:84)	MOVQ	96(SP), BP
	0x0149 00329 (morse.go:84)	ADDQ	$104, SP
	0x014d 00333 (morse.go:84)	RET
	0x014e 00334 (morse.go:80)	MOVQ	AX, (SP)
	0x0152 00338 (morse.go:80)	MOVQ	"".buf·2.ptr+88(SP), CX
	0x0157 00343 (morse.go:80)	MOVQ	CX, 8(SP)
	0x015c 00348 (morse.go:80)	PCDATA	$0, $2
	0x015c 00348 (morse.go:80)	CALL	runtime.writebarrierptr(SB)
	0x0161 00353 (morse.go:80)	MOVQ	bytes.b·2+80(SP), AX
	0x0166 00358 (morse.go:80)	JMP	163
	0x016b 00363 (morse.go:84)	PCDATA	$0, $0
	0x016b 00363 (morse.go:84)	CALL	runtime.panicslice(SB)
	0x0170 00368 (morse.go:84)	UNDEF
	0x0172 00370 (morse.go:84)	NOP
	0x0172 00370 (morse.go:79)	PCDATA	$0, $-1
	0x0172 00370 (morse.go:79)	CALL	runtime.morestack_noctxt(SB)
	0x0177 00375 (morse.go:79)	JMP	0
	0x0000 64 48 8b 0c 25 00 00 00 00 48 3b 61 10 0f 86 5f  dH..%....H;a..._
	0x0010 01 00 00 48 83 ec 68 48 89 6c 24 60 48 8d 6c 24  ...H..hH.l$`H.l$
	0x0020 60 48 8d 05 00 00 00 00 48 89 04 24 48 c7 44 24  `H......H..$H.D$
	0x0030 08 00 00 00 00 48 c7 44 24 10 00 00 00 00 e8 00  .....H.D$.......
	0x0040 00 00 00 48 8b 44 24 28 48 89 44 24 48 48 8b 4c  ...H.D$(H.D$HH.L
	0x0050 24 20 48 89 4c 24 40 48 8b 54 24 18 48 89 54 24  $ H.L$@H.T$.H.T$
	0x0060 58 48 8d 1d 00 00 00 00 48 89 1c 24 e8 00 00 00  XH......H..$....
	0x0070 00 48 8b 44 24 08 48 89 44 24 50 48 8b 4c 24 40  .H.D$.H.D$PH.L$@
	0x0080 48 89 48 08 48 8b 4c 24 48 48 89 48 10 8b 0d 00  H.H.H.L$HH.H....
	0x0090 00 00 00 85 c9 0f 85 b3 00 00 00 48 8b 4c 24 58  ...........H.L$X
	0x00a0 48 89 08 31 c9 eb 58 48 89 4c 24 38 48 8d 05 00  H..1..XH.L$8H...
	0x00b0 00 00 00 48 89 04 24 48 c7 44 24 08 06 00 00 00  ...H..$H.D$.....
	0x00c0 e8 00 00 00 00 48 8b 44 24 20 48 8b 4c 24 18 48  .....H.D$ H.L$.H
	0x00d0 8b 54 24 10 48 8b 5c 24 50 48 89 1c 24 48 89 54  .T$.H.\$PH..$H.T
	0x00e0 24 08 48 89 4c 24 10 48 89 44 24 18 e8 00 00 00  $.H.L$.H.D$.....
	0x00f0 00 48 8b 44 24 38 48 8d 48 01 48 8b 44 24 50 48  .H.D$8H.H.H.D$PH
	0x0100 81 f9 40 42 0f 00 7c 9f 48 8b 48 18 48 8b 10 48  ..@B..|.H.H.H..H
	0x0110 8b 58 08 48 8b 40 10 48 39 d9 77 4f 48 29 c8 48  .X.H.@.H9.wOH).H
	0x0120 89 c6 48 f7 d8 48 c1 f8 3f 48 21 c8 48 01 d0 48  ..H..H..?H!.H..H
	0x0130 89 44 24 70 48 29 cb 48 89 5c 24 78 48 89 b4 24  .D$pH).H.\$xH..$
	0x0140 80 00 00 00 48 8b 6c 24 60 48 83 c4 68 c3 48 89  ....H.l$`H..h.H.
	0x0150 04 24 48 8b 4c 24 58 48 89 4c 24 08 e8 00 00 00  .$H.L$XH.L$.....
	0x0160 00 48 8b 44 24 50 e9 38 ff ff ff e8 00 00 00 00  .H.D$P.8........
	0x0170 0f 0b e8 00 00 00 00 e9 84 fe ff ff              ............
	rel 5+4 t=16 TLS+0
	rel 36+4 t=15 type.uint8+0
	rel 63+4 t=8 runtime.makeslice+0
	rel 100+4 t=15 type.bytes.Buffer+0
	rel 109+4 t=8 runtime.newobject+0
	rel 143+4 t=15 runtime.writeBarrier+0
	rel 175+4 t=15 go.string."apple "+0
	rel 193+4 t=8 "".encode+0
	rel 237+4 t=8 bytes.(*Buffer).Write+0
	rel 349+4 t=8 runtime.writebarrierptr+0
	rel 364+4 t=8 runtime.panicslice+0
	rel 371+4 t=8 runtime.morestack_noctxt+0
"".main STEXT size=698 args=0x0 locals=0x90
	0x0000 00000 (morse.go:89)	TEXT	"".main(SB), $144-0
	0x0000 00000 (morse.go:89)	MOVQ	(TLS), CX
	0x0009 00009 (morse.go:89)	LEAQ	-16(SP), AX
	0x000e 00014 (morse.go:89)	CMPQ	AX, 16(CX)
	0x0012 00018 (morse.go:89)	JLS	688
	0x0018 00024 (morse.go:89)	SUBQ	$144, SP
	0x001f 00031 (morse.go:89)	MOVQ	BP, 136(SP)
	0x0027 00039 (morse.go:89)	LEAQ	136(SP), BP
	0x002f 00047 (morse.go:89)	FUNCDATA	$0, gclocals·3e27b3aa6b89137cce48b3379a2a6610(SB)
	0x002f 00047 (morse.go:89)	FUNCDATA	$1, gclocals·b1157cd9bf60d0e9f75c8dd70a4c97a0(SB)
	0x002f 00047 (morse.go:90)	PCDATA	$0, $0
	0x002f 00047 (morse.go:90)	CALL	flag.Parse(SB)
	0x0034 00052 (morse.go:91)	MOVQ	"".cpuprofile(SB), AX
	0x003b 00059 (morse.go:91)	MOVQ	8(AX), CX
	0x003f 00063 (morse.go:91)	MOVQ	(AX), AX
	0x0042 00066 (morse.go:91)	TESTQ	CX, CX
	0x0045 00069 (morse.go:91)	JNE	482
	0x004b 00075 (morse.go:110)	MOVLQSX	runtime.ncpu(SB), AX
	0x0052 00082 (morse.go:110)	MOVQ	AX, ""..autotmp_31+88(SP)
	0x0057 00087 (morse.go:110)	LEAQ	go.string."data.dat"(SB), CX
	0x005e 00094 (morse.go:111)	MOVQ	CX, (SP)
	0x0062 00098 (morse.go:111)	MOVQ	$8, 8(SP)
	0x006b 00107 (morse.go:111)	PCDATA	$0, $0
	0x006b 00107 (morse.go:111)	CALL	io/ioutil.ReadFile(SB)
	0x0070 00112 (morse.go:111)	MOVQ	24(SP), AX
	0x0075 00117 (morse.go:111)	MOVQ	AX, "".data.len+64(SP)
	0x007a 00122 (morse.go:111)	MOVQ	16(SP), CX
	0x007f 00127 (morse.go:111)	MOVQ	CX, "".data.ptr+104(SP)
	0x0084 00132 (morse.go:111)	MOVQ	32(SP), DX
	0x0089 00137 (morse.go:111)	MOVQ	DX, "".data.cap+72(SP)
	0x008e 00142 (morse.go:111)	LEAQ	type.chan string(SB), BX
	0x0095 00149 (morse.go:112)	MOVQ	BX, (SP)
	0x0099 00153 (morse.go:112)	MOVQ	$0, 8(SP)
	0x00a2 00162 (morse.go:112)	PCDATA	$0, $1
	0x00a2 00162 (morse.go:112)	CALL	runtime.makechan(SB)
	0x00a7 00167 (morse.go:112)	MOVQ	16(SP), AX
	0x00ac 00172 (morse.go:112)	MOVQ	AX, "".ch+112(SP)
	0x00b1 00177 (morse.go:112)	MOVL	$0, CX
	0x00b3 00179 (morse.go:113)	JMP	288
	0x00b5 00181 (morse.go:113)	MOVQ	CX, ""..autotmp_32+80(SP)
	0x00ba 00186 (morse.go:114)	SUBQ	SI, DX
	0x00bd 00189 (morse.go:114)	MOVQ	DX, BX
	0x00c0 00192 (morse.go:114)	NEGQ	DX
	0x00c3 00195 (morse.go:114)	SARQ	$63, DX
	0x00c7 00199 (morse.go:114)	ANDQ	SI, DX
	0x00ca 00202 (morse.go:114)	MOVQ	"".data.ptr+104(SP), DI
	0x00cf 00207 (morse.go:114)	ADDQ	DI, DX
	0x00d2 00210 (morse.go:114)	MOVQ	DX, (SP)
	0x00d6 00214 (morse.go:114)	SUBQ	SI, AX
	0x00d9 00217 (morse.go:114)	MOVQ	AX, 8(SP)
	0x00de 00222 (morse.go:114)	MOVQ	BX, 16(SP)
	0x00e3 00227 (morse.go:114)	PCDATA	$0, $2
	0x00e3 00227 (morse.go:114)	CALL	bytes.NewReader(SB)
	0x00e8 00232 (morse.go:114)	LEAQ	go.itab.*bytes.Reader,io.Reader(SB), AX
	0x00ef 00239 (morse.go:114)	MOVQ	AX, 16(SP)
	0x00f4 00244 (morse.go:114)	MOVQ	"".ch+112(SP), CX
	0x00f9 00249 (morse.go:114)	MOVQ	CX, 32(SP)
	0x00fe 00254 (morse.go:114)	MOVL	$24, (SP)
	0x0105 00261 (morse.go:114)	LEAQ	"".decodeToChannel·f(SB), DX
	0x010c 00268 (morse.go:114)	MOVQ	DX, 8(SP)
	0x0111 00273 (morse.go:114)	PCDATA	$0, $2
	0x0111 00273 (morse.go:114)	CALL	runtime.newproc(SB)
	0x0116 00278 (morse.go:114)	MOVQ	"".ch+112(SP), AX
	0x011b 00283 (morse.go:114)	MOVQ	""..autotmp_32+80(SP), CX
	0x0120 00288 (morse.go:113)	MOVQ	""..autotmp_31+88(SP), DX
	0x0125 00293 (morse.go:113)	CMPQ	CX, DX
	0x0128 00296 (morse.go:113)	JGE	409
	0x012a 00298 (morse.go:113)	MOVQ	"".data.len+64(SP), BX
	0x012f 00303 (morse.go:113)	MOVQ	CX, SI
	0x0132 00306 (morse.go:114)	IMULQ	BX, CX
	0x0136 00310 (morse.go:114)	TESTQ	DX, DX
	0x0139 00313 (morse.go:114)	JEQ	681
	0x013f 00319 (morse.go:114)	MOVQ	CX, AX
	0x0142 00322 (morse.go:114)	MOVQ	DX, R8
	0x0145 00325 (morse.go:114)	CMPQ	R8, $-1
	0x0149 00329 (morse.go:114)	JEQ	338
	0x014b 00331 (morse.go:114)	CQO
	0x014d 00333 (morse.go:114)	IDIVQ	R8
	0x0150 00336 (morse.go:114)	JMP	343
	0x0152 00338 (morse.go:114)	NEGQ	AX
	0x0155 00341 (morse.go:114)	XORL	DX, DX
	0x0157 00343 (morse.go:114)	LEAQ	1(SI), CX
	0x015b 00347 (morse.go:114)	MOVQ	CX, DX
	0x015e 00350 (morse.go:114)	IMULQ	BX, CX
	0x0162 00354 (morse.go:114)	MOVQ	AX, SI
	0x0165 00357 (morse.go:114)	MOVQ	CX, AX
	0x0168 00360 (morse.go:114)	MOVQ	DX, CX
	0x016b 00363 (morse.go:114)	CMPQ	R8, $-1
	0x016f 00367 (morse.go:114)	JEQ	376
	0x0171 00369 (morse.go:114)	CQO
	0x0173 00371 (morse.go:114)	IDIVQ	R8
	0x0176 00374 (morse.go:114)	JMP	381
	0x0178 00376 (morse.go:114)	NEGQ	AX
	0x017b 00379 (morse.go:114)	XORL	DX, DX
	0x017d 00381 (morse.go:114)	CMPQ	SI, AX
	0x0180 00384 (morse.go:114)	JHI	674
	0x0186 00390 (morse.go:114)	MOVQ	"".data.cap+72(SP), DX
	0x018b 00395 (morse.go:114)	CMPQ	AX, DX
	0x018e 00398 (morse.go:114)	JLS	181
	0x0194 00404 (morse.go:114)	JMP	674
	0x0199 00409 (morse.go:114)	MOVL	$0, CX
	0x019b 00411 (morse.go:116)	JMP	455
	0x019d 00413 (morse.go:116)	MOVQ	CX, "".i+56(SP)
	0x01a2 00418 (morse.go:117)	MOVQ	AX, (SP)
	0x01a6 00422 (morse.go:117)	MOVQ	$0, 8(SP)
	0x01af 00431 (morse.go:117)	PCDATA	$0, $3
	0x01af 00431 (morse.go:117)	CALL	runtime.chanrecv1(SB)
	0x01b4 00436 (morse.go:117)	MOVQ	"".i+56(SP), AX
	0x01b9 00441 (morse.go:116)	LEAQ	1(AX), CX
	0x01bd 00445 (morse.go:116)	MOVQ	"".ch+112(SP), AX
	0x01c2 00450 (morse.go:116)	MOVQ	""..autotmp_31+88(SP), DX
	0x01c7 00455 (morse.go:116)	CMPQ	CX, DX
	0x01ca 00458 (morse.go:116)	JLT	413
	0x01cc 00460 (morse.go:119)	PCDATA	$0, $0
	0x01cc 00460 (morse.go:119)	XCHGL	AX, AX
	0x01cd 00461 (morse.go:119)	CALL	runtime.deferreturn(SB)
	0x01d2 00466 (morse.go:119)	MOVQ	136(SP), BP
	0x01da 00474 (morse.go:119)	ADDQ	$144, SP
	0x01e1 00481 (morse.go:119)	RET
	0x01e2 00482 (morse.go:92)	MOVQ	AX, (SP)
	0x01e6 00486 (morse.go:92)	MOVQ	CX, 8(SP)
	0x01eb 00491 (morse.go:92)	PCDATA	$0, $0
	0x01eb 00491 (morse.go:92)	CALL	os.Create(SB)
	0x01f0 00496 (morse.go:92)	MOVQ	16(SP), AX
	0x01f5 00501 (morse.go:92)	MOVQ	AX, "".f+96(SP)
	0x01fa 00506 (morse.go:92)	MOVQ	32(SP), CX
	0x01ff 00511 (morse.go:92)	MOVQ	24(SP), DX
	0x0204 00516 (morse.go:93)	TESTQ	DX, DX
	0x0207 00519 (morse.go:93)	JEQ	593
	0x0209 00521 (morse.go:94)	JEQ	527
	0x020b 00523 (morse.go:94)	MOVQ	8(DX), DX
	0x020f 00527 (morse.go:94)	MOVQ	$0, ""..autotmp_10+120(SP)
	0x0218 00536 (morse.go:94)	MOVQ	$0, ""..autotmp_10+128(SP)
	0x0224 00548 (morse.go:94)	MOVQ	DX, ""..autotmp_10+120(SP)
	0x0229 00553 (morse.go:94)	MOVQ	CX, ""..autotmp_10+128(SP)
	0x0231 00561 (morse.go:94)	LEAQ	""..autotmp_10+120(SP), AX
	0x0236 00566 (morse.go:94)	MOVQ	AX, (SP)
	0x023a 00570 (morse.go:94)	MOVQ	$1, 8(SP)
	0x0243 00579 (morse.go:94)	MOVQ	$1, 16(SP)
	0x024c 00588 (morse.go:94)	PCDATA	$0, $4
	0x024c 00588 (morse.go:94)	CALL	log.Fatal(SB)
	0x0251 00593 (morse.go:93)	LEAQ	go.itab.*os.File,io.Writer(SB), AX
	0x0258 00600 (morse.go:96)	MOVQ	AX, (SP)
	0x025c 00604 (morse.go:96)	MOVQ	"".f+96(SP), AX
	0x0261 00609 (morse.go:96)	MOVQ	AX, 8(SP)
	0x0266 00614 (morse.go:96)	PCDATA	$0, $0
	0x0266 00614 (morse.go:96)	CALL	runtime/pprof.StartCPUProfile(SB)
	0x026b 00619 (morse.go:97)	MOVL	$0, (SP)
	0x0272 00626 (morse.go:97)	LEAQ	runtime/pprof.StopCPUProfile·f(SB), AX
	0x0279 00633 (morse.go:97)	MOVQ	AX, 8(SP)
	0x027e 00638 (morse.go:97)	PCDATA	$0, $0
	0x027e 00638 (morse.go:97)	CALL	runtime.deferproc(SB)
	0x0283 00643 (morse.go:97)	TESTL	AX, AX
	0x0285 00645 (morse.go:97)	JNE	652
	0x0287 00647 (morse.go:97)	JMP	75
	0x028c 00652 (morse.go:97)	PCDATA	$0, $0
	0x028c 00652 (morse.go:97)	XCHGL	AX, AX
	0x028d 00653 (morse.go:97)	CALL	runtime.deferreturn(SB)
	0x0292 00658 (morse.go:97)	MOVQ	136(SP), BP
	0x029a 00666 (morse.go:97)	ADDQ	$144, SP
	0x02a1 00673 (morse.go:97)	RET
	0x02a2 00674 (morse.go:114)	PCDATA	$0, $0
	0x02a2 00674 (morse.go:114)	CALL	runtime.panicslice(SB)
	0x02a7 00679 (morse.go:114)	UNDEF
	0x02a9 00681 (morse.go:114)	PCDATA	$0, $0
	0x02a9 00681 (morse.go:114)	CALL	runtime.panicdivide(SB)
	0x02ae 00686 (morse.go:114)	UNDEF
	0x02b0 00688 (morse.go:114)	NOP
	0x02b0 00688 (morse.go:89)	PCDATA	$0, $-1
	0x02b0 00688 (morse.go:89)	CALL	runtime.morestack_noctxt(SB)
	0x02b5 00693 (morse.go:89)	JMP	0
	0x0000 64 48 8b 0c 25 00 00 00 00 48 8d 44 24 f0 48 3b  dH..%....H.D$.H;
	0x0010 41 10 0f 86 98 02 00 00 48 81 ec 90 00 00 00 48  A.......H......H
	0x0020 89 ac 24 88 00 00 00 48 8d ac 24 88 00 00 00 e8  ..$....H..$.....
	0x0030 00 00 00 00 48 8b 05 00 00 00 00 48 8b 48 08 48  ....H......H.H.H
	0x0040 8b 00 48 85 c9 0f 85 97 01 00 00 48 63 05 00 00  ..H........Hc...
	0x0050 00 00 48 89 44 24 58 48 8d 0d 00 00 00 00 48 89  ..H.D$XH......H.
	0x0060 0c 24 48 c7 44 24 08 08 00 00 00 e8 00 00 00 00  .$H.D$..........
	0x0070 48 8b 44 24 18 48 89 44 24 40 48 8b 4c 24 10 48  H.D$.H.D$@H.L$.H
	0x0080 89 4c 24 68 48 8b 54 24 20 48 89 54 24 48 48 8d  .L$hH.T$ H.T$HH.
	0x0090 1d 00 00 00 00 48 89 1c 24 48 c7 44 24 08 00 00  .....H..$H.D$...
	0x00a0 00 00 e8 00 00 00 00 48 8b 44 24 10 48 89 44 24  .......H.D$.H.D$
	0x00b0 70 31 c9 eb 6b 48 89 4c 24 50 48 29 f2 48 89 d3  p1..kH.L$PH).H..
	0x00c0 48 f7 da 48 c1 fa 3f 48 21 f2 48 8b 7c 24 68 48  H..H..?H!.H.|$hH
	0x00d0 01 fa 48 89 14 24 48 29 f0 48 89 44 24 08 48 89  ..H..$H).H.D$.H.
	0x00e0 5c 24 10 e8 00 00 00 00 48 8d 05 00 00 00 00 48  \$......H......H
	0x00f0 89 44 24 10 48 8b 4c 24 70 48 89 4c 24 20 c7 04  .D$.H.L$pH.L$ ..
	0x0100 24 18 00 00 00 48 8d 15 00 00 00 00 48 89 54 24  $....H......H.T$
	0x0110 08 e8 00 00 00 00 48 8b 44 24 70 48 8b 4c 24 50  ......H.D$pH.L$P
	0x0120 48 8b 54 24 58 48 39 d1 7d 6f 48 8b 5c 24 40 48  H.T$XH9.}oH.\$@H
	0x0130 89 ce 48 0f af cb 48 85 d2 0f 84 6a 01 00 00 48  ..H...H....j...H
	0x0140 89 c8 49 89 d0 49 83 f8 ff 74 07 48 99 49 f7 f8  ..I..I...t.H.I..
	0x0150 eb 05 48 f7 d8 31 d2 48 8d 4e 01 48 89 ca 48 0f  ..H..1.H.N.H..H.
	0x0160 af cb 48 89 c6 48 89 c8 48 89 d1 49 83 f8 ff 74  ..H..H..H..I...t
	0x0170 07 48 99 49 f7 f8 eb 05 48 f7 d8 31 d2 48 39 c6  .H.I....H..1.H9.
	0x0180 0f 87 1c 01 00 00 48 8b 54 24 48 48 39 d0 0f 86  ......H.T$HH9...
	0x0190 21 ff ff ff e9 09 01 00 00 31 c9 eb 2a 48 89 4c  !........1..*H.L
	0x01a0 24 38 48 89 04 24 48 c7 44 24 08 00 00 00 00 e8  $8H..$H.D$......
	0x01b0 00 00 00 00 48 8b 44 24 38 48 8d 48 01 48 8b 44  ....H.D$8H.H.H.D
	0x01c0 24 70 48 8b 54 24 58 48 39 d1 7c d1 90 e8 00 00  $pH.T$XH9.|.....
	0x01d0 00 00 48 8b ac 24 88 00 00 00 48 81 c4 90 00 00  ..H..$....H.....
	0x01e0 00 c3 48 89 04 24 48 89 4c 24 08 e8 00 00 00 00  ..H..$H.L$......
	0x01f0 48 8b 44 24 10 48 89 44 24 60 48 8b 4c 24 20 48  H.D$.H.D$`H.L$ H
	0x0200 8b 54 24 18 48 85 d2 74 48 74 04 48 8b 52 08 48  .T$.H..tHt.H.R.H
	0x0210 c7 44 24 78 00 00 00 00 48 c7 84 24 80 00 00 00  .D$x....H..$....
	0x0220 00 00 00 00 48 89 54 24 78 48 89 8c 24 80 00 00  ....H.T$xH..$...
	0x0230 00 48 8d 44 24 78 48 89 04 24 48 c7 44 24 08 01  .H.D$xH..$H.D$..
	0x0240 00 00 00 48 c7 44 24 10 01 00 00 00 e8 00 00 00  ...H.D$.........
	0x0250 00 48 8d 05 00 00 00 00 48 89 04 24 48 8b 44 24  .H......H..$H.D$
	0x0260 60 48 89 44 24 08 e8 00 00 00 00 c7 04 24 00 00  `H.D$........$..
	0x0270 00 00 48 8d 05 00 00 00 00 48 89 44 24 08 e8 00  ..H......H.D$...
	0x0280 00 00 00 85 c0 75 05 e9 bf fd ff ff 90 e8 00 00  .....u..........
	0x0290 00 00 48 8b ac 24 88 00 00 00 48 81 c4 90 00 00  ..H..$....H.....
	0x02a0 00 c3 e8 00 00 00 00 0f 0b e8 00 00 00 00 0f 0b  ................
	0x02b0 e8 00 00 00 00 e9 46 fd ff ff                    ......F...
	rel 5+4 t=16 TLS+0
	rel 48+4 t=8 flag.Parse+0
	rel 55+4 t=15 "".cpuprofile+0
	rel 78+4 t=15 runtime.ncpu+0
	rel 90+4 t=15 go.string."data.dat"+0
	rel 108+4 t=8 io/ioutil.ReadFile+0
	rel 145+4 t=15 type.chan string+0
	rel 163+4 t=8 runtime.makechan+0
	rel 228+4 t=8 bytes.NewReader+0
	rel 235+4 t=15 go.itab.*bytes.Reader,io.Reader+0
	rel 264+4 t=15 "".decodeToChannel·f+0
	rel 274+4 t=8 runtime.newproc+0
	rel 432+4 t=8 runtime.chanrecv1+0
	rel 462+4 t=8 runtime.deferreturn+0
	rel 492+4 t=8 os.Create+0
	rel 589+4 t=8 log.Fatal+0
	rel 596+4 t=15 go.itab.*os.File,io.Writer+0
	rel 615+4 t=8 runtime/pprof.StartCPUProfile+0
	rel 629+4 t=15 runtime/pprof.StopCPUProfile·f+0
	rel 639+4 t=8 runtime.deferproc+0
	rel 654+4 t=8 runtime.deferreturn+0
	rel 675+4 t=8 runtime.panicslice+0
	rel 682+4 t=8 runtime.panicdivide+0
	rel 689+4 t=8 runtime.morestack_noctxt+0
"".init STEXT size=2008 args=0x0 locals=0x50
	0x0000 00000 (<autogenerated>:1)	TEXT	"".init(SB), $80-0
	0x0000 00000 (<autogenerated>:1)	MOVQ	(TLS), CX
	0x0009 00009 (<autogenerated>:1)	CMPQ	SP, 16(CX)
	0x000d 00013 (<autogenerated>:1)	JLS	1998
	0x0013 00019 (<autogenerated>:1)	SUBQ	$80, SP
	0x0017 00023 (<autogenerated>:1)	MOVQ	BP, 72(SP)
	0x001c 00028 (<autogenerated>:1)	LEAQ	72(SP), BP
	0x0021 00033 (<autogenerated>:1)	FUNCDATA	$0, gclocals·69c1753bd5f81501d95132d08af04464(SB)
	0x0021 00033 (<autogenerated>:1)	FUNCDATA	$1, gclocals·9fb7f0986f647f17cb53dda1484e0f7a(SB)
	0x0021 00033 (<autogenerated>:1)	MOVBLZX	"".initdone·(SB), AX
	0x0028 00040 (<autogenerated>:1)	CMPB	AL, $1
	0x002a 00042 (<autogenerated>:1)	JLS	54
	0x002c 00044 (<autogenerated>:1)	MOVQ	72(SP), BP
	0x0031 00049 (<autogenerated>:1)	ADDQ	$80, SP
	0x0035 00053 (<autogenerated>:1)	RET
	0x0036 00054 (<autogenerated>:1)	JNE	63
	0x0038 00056 (<autogenerated>:1)	PCDATA	$0, $0
	0x0038 00056 (<autogenerated>:1)	CALL	runtime.throwinit(SB)
	0x003d 00061 (<autogenerated>:1)	UNDEF
	0x003f 00063 (<autogenerated>:1)	MOVB	$1, "".initdone·(SB)
	0x0046 00070 (<autogenerated>:1)	PCDATA	$0, $0
	0x0046 00070 (<autogenerated>:1)	CALL	bufio.init(SB)
	0x004b 00075 (<autogenerated>:1)	PCDATA	$0, $0
	0x004b 00075 (<autogenerated>:1)	CALL	bytes.init(SB)
	0x0050 00080 (<autogenerated>:1)	PCDATA	$0, $0
	0x0050 00080 (<autogenerated>:1)	CALL	flag.init(SB)
	0x0055 00085 (<autogenerated>:1)	PCDATA	$0, $0
	0x0055 00085 (<autogenerated>:1)	CALL	io.init(SB)
	0x005a 00090 (<autogenerated>:1)	PCDATA	$0, $0
	0x005a 00090 (<autogenerated>:1)	CALL	io/ioutil.init(SB)
	0x005f 00095 (<autogenerated>:1)	PCDATA	$0, $0
	0x005f 00095 (<autogenerated>:1)	CALL	log.init(SB)
	0x0064 00100 (<autogenerated>:1)	PCDATA	$0, $0
	0x0064 00100 (<autogenerated>:1)	CALL	os.init(SB)
	0x0069 00105 (<autogenerated>:1)	PCDATA	$0, $0
	0x0069 00105 (<autogenerated>:1)	CALL	runtime.init(SB)
	0x006e 00110 (<autogenerated>:1)	PCDATA	$0, $0
	0x006e 00110 (<autogenerated>:1)	CALL	runtime/pprof.init(SB)
	0x0073 00115 (<autogenerated>:1)	PCDATA	$0, $0
	0x0073 00115 (<autogenerated>:1)	CALL	strings.init(SB)
	0x0078 00120 (<autogenerated>:1)	LEAQ	type.map[[2]uint8]int32(SB), AX
	0x007f 00127 (morse.go:16)	MOVQ	AX, (SP)
	0x0083 00131 (morse.go:16)	MOVQ	$27, 8(SP)
	0x008c 00140 (morse.go:16)	MOVQ	$0, 16(SP)
	0x0095 00149 (morse.go:16)	MOVQ	$0, 24(SP)
	0x009e 00158 (morse.go:16)	PCDATA	$0, $0
	0x009e 00158 (morse.go:16)	CALL	runtime.makemap(SB)
	0x00a3 00163 (morse.go:16)	MOVQ	32(SP), AX
	0x00a8 00168 (morse.go:16)	MOVQ	AX, ""..autotmp_30+64(SP)
	0x00ad 00173 (morse.go:17)	MOVW	$0, ""..autotmp_1+62(SP)
	0x00b4 00180 (morse.go:17)	MOVW	$5888, ""..autotmp_1+62(SP)
	0x00bb 00187 (morse.go:17)	LEAQ	type.map[[2]uint8]int32(SB), CX
	0x00c2 00194 (morse.go:17)	MOVQ	CX, (SP)
	0x00c6 00198 (morse.go:17)	MOVQ	AX, 8(SP)
	0x00cb 00203 (morse.go:17)	LEAQ	""..autotmp_1+62(SP), DX
	0x00d0 00208 (morse.go:17)	MOVQ	DX, 16(SP)
	0x00d5 00213 (morse.go:17)	PCDATA	$0, $1
	0x00d5 00213 (morse.go:17)	CALL	runtime.mapassign(SB)
	0x00da 00218 (morse.go:17)	MOVQ	24(SP), AX
	0x00df 00223 (morse.go:17)	MOVL	$97, (AX)
	0x00e5 00229 (morse.go:18)	MOVW	$0, ""..autotmp_1+62(SP)
	0x00ec 00236 (morse.go:18)	MOVW	$-11007, ""..autotmp_1+62(SP)
	0x00f3 00243 (morse.go:18)	LEAQ	type.map[[2]uint8]int32(SB), AX
	0x00fa 00250 (morse.go:18)	MOVQ	AX, (SP)
	0x00fe 00254 (morse.go:18)	MOVQ	""..autotmp_30+64(SP), CX
	0x0103 00259 (morse.go:18)	MOVQ	CX, 8(SP)
	0x0108 00264 (morse.go:18)	LEAQ	""..autotmp_1+62(SP), DX
	0x010d 00269 (morse.go:18)	MOVQ	DX, 16(SP)
	0x0112 00274 (morse.go:18)	PCDATA	$0, $1
	0x0112 00274 (morse.go:18)	CALL	runtime.mapassign(SB)
	0x0117 00279 (morse.go:18)	MOVQ	24(SP), AX
	0x011c 00284 (morse.go:18)	MOVL	$98, (AX)
	0x0122 00290 (morse.go:19)	MOVW	$0, ""..autotmp_1+62(SP)
	0x0129 00297 (morse.go:19)	MOVW	$23815, ""..autotmp_1+62(SP)
	0x0130 00304 (morse.go:19)	LEAQ	type.map[[2]uint8]int32(SB), AX
	0x0137 00311 (morse.go:19)	MOVQ	AX, (SP)
	0x013b 00315 (morse.go:19)	MOVQ	""..autotmp_30+64(SP), CX
	0x0140 00320 (morse.go:19)	MOVQ	CX, 8(SP)
	0x0145 00325 (morse.go:19)	LEAQ	""..autotmp_1+62(SP), DX
	0x014a 00330 (morse.go:19)	MOVQ	DX, 16(SP)
	0x014f 00335 (morse.go:19)	PCDATA	$0, $1
	0x014f 00335 (morse.go:19)	CALL	runtime.mapassign(SB)
	0x0154 00340 (morse.go:19)	MOVQ	24(SP), AX
	0x0159 00345 (morse.go:19)	MOVL	$99, (AX)
	0x015f 00351 (morse.go:20)	MOVW	$0, ""..autotmp_1+62(SP)
	0x0166 00358 (morse.go:20)	MOVW	$29952, ""..autotmp_1+62(SP)
	0x016d 00365 (morse.go:20)	LEAQ	type.map[[2]uint8]int32(SB), AX
	0x0174 00372 (morse.go:20)	MOVQ	AX, (SP)
	0x0178 00376 (morse.go:20)	MOVQ	""..autotmp_30+64(SP), CX
	0x017d 00381 (morse.go:20)	MOVQ	CX, 8(SP)
	0x0182 00386 (morse.go:20)	LEAQ	""..autotmp_1+62(SP), DX
	0x0187 00391 (morse.go:20)	MOVQ	DX, 16(SP)
	0x018c 00396 (morse.go:20)	PCDATA	$0, $1
	0x018c 00396 (morse.go:20)	CALL	runtime.mapassign(SB)
	0x0191 00401 (morse.go:20)	MOVQ	24(SP), AX
	0x0196 00406 (morse.go:20)	MOVL	$100, (AX)
	0x019c 00412 (morse.go:21)	MOVW	$0, ""..autotmp_1+62(SP)
	0x01a3 00419 (morse.go:21)	MOVW	$256, ""..autotmp_1+62(SP)
	0x01aa 00426 (morse.go:21)	LEAQ	type.map[[2]uint8]int32(SB), AX
	0x01b1 00433 (morse.go:21)	MOVQ	AX, (SP)
	0x01b5 00437 (morse.go:21)	MOVQ	""..autotmp_30+64(SP), CX
	0x01ba 00442 (morse.go:21)	MOVQ	CX, 8(SP)
	0x01bf 00447 (morse.go:21)	LEAQ	""..autotmp_1+62(SP), DX
	0x01c4 00452 (morse.go:21)	MOVQ	DX, 16(SP)
	0x01c9 00457 (morse.go:21)	PCDATA	$0, $1
	0x01c9 00457 (morse.go:21)	CALL	runtime.mapassign(SB)
	0x01ce 00462 (morse.go:21)	MOVQ	24(SP), AX
	0x01d3 00467 (morse.go:21)	MOVL	$101, (AX)
	0x01d9 00473 (morse.go:22)	MOVW	$0, ""..autotmp_1+62(SP)
	0x01e0 00480 (morse.go:22)	MOVW	$23809, ""..autotmp_1+62(SP)
	0x01e7 00487 (morse.go:22)	LEAQ	type.map[[2]uint8]int32(SB), AX
	0x01ee 00494 (morse.go:22)	MOVQ	AX, (SP)
	0x01f2 00498 (morse.go:22)	MOVQ	""..autotmp_30+64(SP), CX
	0x01f7 00503 (morse.go:22)	MOVQ	CX, 8(SP)
	0x01fc 00508 (morse.go:22)	LEAQ	""..autotmp_1+62(SP), DX
	0x0201 00513 (morse.go:22)	MOVQ	DX, 16(SP)
	0x0206 00518 (morse.go:22)	PCDATA	$0, $1
	0x0206 00518 (morse.go:22)	CALL	runtime.mapassign(SB)
	0x020b 00523 (morse.go:22)	MOVQ	24(SP), AX
	0x0210 00528 (morse.go:22)	MOVL	$102, (AX)
	0x0216 00534 (morse.go:23)	MOVW	$0, ""..autotmp_1+62(SP)
	0x021d 00541 (morse.go:23)	MOVW	$-8959, ""..autotmp_1+62(SP)
	0x0224 00548 (morse.go:23)	LEAQ	type.map[[2]uint8]int32(SB), AX
	0x022b 00555 (morse.go:23)	MOVQ	AX, (SP)
	0x022f 00559 (morse.go:23)	MOVQ	""..autotmp_30+64(SP), CX
	0x0234 00564 (morse.go:23)	MOVQ	CX, 8(SP)
	0x0239 00569 (morse.go:23)	LEAQ	""..autotmp_1+62(SP), DX
	0x023e 00574 (morse.go:23)	MOVQ	DX, 16(SP)
	0x0243 00579 (morse.go:23)	PCDATA	$0, $1
	0x0243 00579 (morse.go:23)	CALL	runtime.mapassign(SB)
	0x0248 00584 (morse.go:23)	MOVQ	24(SP), AX
	0x024d 00589 (morse.go:23)	MOVL	$103, (AX)
	0x0253 00595 (morse.go:24)	MOVW	$0, ""..autotmp_1+62(SP)
	0x025a 00602 (morse.go:24)	MOVW	$21760, ""..autotmp_1+62(SP)
	0x0261 00609 (morse.go:24)	LEAQ	type.map[[2]uint8]int32(SB), AX
	0x0268 00616 (morse.go:24)	MOVQ	AX, (SP)
	0x026c 00620 (morse.go:24)	MOVQ	""..autotmp_30+64(SP), CX
	0x0271 00625 (morse.go:24)	MOVQ	CX, 8(SP)
	0x0276 00630 (morse.go:24)	LEAQ	""..autotmp_1+62(SP), DX
	0x027b 00635 (morse.go:24)	MOVQ	DX, 16(SP)
	0x0280 00640 (morse.go:24)	PCDATA	$0, $1
	0x0280 00640 (morse.go:24)	CALL	runtime.mapassign(SB)
	0x0285 00645 (morse.go:24)	MOVQ	24(SP), AX
	0x028a 00650 (morse.go:24)	MOVL	$104, (AX)
	0x0290 00656 (morse.go:25)	MOVW	$0, ""..autotmp_1+62(SP)
	0x0297 00663 (morse.go:25)	MOVW	$1280, ""..autotmp_1+62(SP)
	0x029e 00670 (morse.go:25)	LEAQ	type.map[[2]uint8]int32(SB), AX
	0x02a5 00677 (morse.go:25)	MOVQ	AX, (SP)
	0x02a9 00681 (morse.go:25)	MOVQ	""..autotmp_30+64(SP), CX
	0x02ae 00686 (morse.go:25)	MOVQ	CX, 8(SP)
	0x02b3 00691 (morse.go:25)	LEAQ	""..autotmp_1+62(SP), DX
	0x02b8 00696 (morse.go:25)	MOVQ	DX, 16(SP)
	0x02bd 00701 (morse.go:25)	PCDATA	$0, $1
	0x02bd 00701 (morse.go:25)	CALL	runtime.mapassign(SB)
	0x02c2 00706 (morse.go:25)	MOVQ	24(SP), AX
	0x02c7 00711 (morse.go:25)	MOVL	$105, (AX)
	0x02cd 00717 (morse.go:26)	MOVW	$0, ""..autotmp_1+62(SP)
	0x02d4 00724 (morse.go:26)	MOVW	$30487, ""..autotmp_1+62(SP)
	0x02db 00731 (morse.go:26)	LEAQ	type.map[[2]uint8]int32(SB), AX
	0x02e2 00738 (morse.go:26)	MOVQ	AX, (SP)
	0x02e6 00742 (morse.go:26)	MOVQ	""..autotmp_30+64(SP), CX
	0x02eb 00747 (morse.go:26)	MOVQ	CX, 8(SP)
	0x02f0 00752 (morse.go:26)	LEAQ	""..autotmp_1+62(SP), DX
	0x02f5 00757 (morse.go:26)	MOVQ	DX, 16(SP)
	0x02fa 00762 (morse.go:26)	PCDATA	$0, $1
	0x02fa 00762 (morse.go:26)	CALL	runtime.mapassign(SB)
	0x02ff 00767 (morse.go:26)	MOVQ	24(SP), AX
	0x0304 00772 (morse.go:26)	MOVL	$106, (AX)
	0x030a 00778 (morse.go:27)	MOVW	$0, ""..autotmp_1+62(SP)
	0x0311 00785 (morse.go:27)	MOVW	$-10495, ""..autotmp_1+62(SP)
	0x0318 00792 (morse.go:27)	LEAQ	type.map[[2]uint8]int32(SB), AX
	0x031f 00799 (morse.go:27)	MOVQ	AX, (SP)
	0x0323 00803 (morse.go:27)	MOVQ	""..autotmp_30+64(SP), CX
	0x0328 00808 (morse.go:27)	MOVQ	CX, 8(SP)
	0x032d 00813 (morse.go:27)	LEAQ	""..autotmp_1+62(SP), DX
	0x0332 00818 (morse.go:27)	MOVQ	DX, 16(SP)
	0x0337 00823 (morse.go:27)	PCDATA	$0, $1
	0x0337 00823 (morse.go:27)	CALL	runtime.mapassign(SB)
	0x033c 00828 (morse.go:27)	MOVQ	24(SP), AX
	0x0341 00833 (morse.go:27)	MOVL	$107, (AX)
	0x0347 00839 (morse.go:28)	MOVW	$0, ""..autotmp_1+62(SP)
	0x034e 00846 (morse.go:28)	MOVW	$29953, ""..autotmp_1+62(SP)
	0x0355 00853 (morse.go:28)	LEAQ	type.map[[2]uint8]int32(SB), AX
	0x035c 00860 (morse.go:28)	MOVQ	AX, (SP)
	0x0360 00864 (morse.go:28)	MOVQ	""..autotmp_30+64(SP), CX
	0x0365 00869 (morse.go:28)	MOVQ	CX, 8(SP)
	0x036a 00874 (morse.go:28)	LEAQ	""..autotmp_1+62(SP), DX
	0x036f 00879 (morse.go:28)	MOVQ	DX, 16(SP)
	0x0374 00884 (morse.go:28)	PCDATA	$0, $1
	0x0374 00884 (morse.go:28)	CALL	runtime.mapassign(SB)
	0x0379 00889 (morse.go:28)	MOVQ	24(SP), AX
	0x037e 00894 (morse.go:28)	MOVL	$108, (AX)
	0x0384 00900 (morse.go:29)	MOVW	$0, ""..autotmp_1+62(SP)
	0x038b 00907 (morse.go:29)	MOVW	$30464, ""..autotmp_1+62(SP)
	0x0392 00914 (morse.go:29)	LEAQ	type.map[[2]uint8]int32(SB), AX
	0x0399 00921 (morse.go:29)	MOVQ	AX, (SP)
	0x039d 00925 (morse.go:29)	MOVQ	""..autotmp_30+64(SP), CX
	0x03a2 00930 (morse.go:29)	MOVQ	CX, 8(SP)
	0x03a7 00935 (morse.go:29)	LEAQ	""..autotmp_1+62(SP), DX
	0x03ac 00940 (morse.go:29)	MOVQ	DX, 16(SP)
	0x03b1 00945 (morse.go:29)	PCDATA	$0, $1
	0x03b1 00945 (morse.go:29)	CALL	runtime.mapassign(SB)
	0x03b6 00950 (morse.go:29)	MOVQ	24(SP), AX
	0x03bb 00955 (morse.go:29)	MOVL	$109, (AX)
	0x03c1 00961 (morse.go:30)	MOVW	$0, ""..autotmp_1+62(SP)
	0x03c8 00968 (morse.go:30)	MOVW	$7424, ""..autotmp_1+62(SP)
	0x03cf 00975 (morse.go:30)	LEAQ	type.map[[2]uint8]int32(SB), AX
	0x03d6 00982 (morse.go:30)	MOVQ	AX, (SP)
	0x03da 00986 (morse.go:30)	MOVQ	""..autotmp_30+64(SP), CX
	0x03df 00991 (morse.go:30)	MOVQ	CX, 8(SP)
	0x03e4 00996 (morse.go:30)	LEAQ	""..autotmp_1+62(SP), DX
	0x03e9 01001 (morse.go:30)	MOVQ	DX, 16(SP)
	0x03ee 01006 (morse.go:30)	PCDATA	$0, $1
	0x03ee 01006 (morse.go:30)	CALL	runtime.mapassign(SB)
	0x03f3 01011 (morse.go:30)	MOVQ	24(SP), AX
	0x03f8 01016 (morse.go:30)	MOVL	$110, (AX)
	0x03fe 01022 (morse.go:31)	MOVW	$0, ""..autotmp_1+62(SP)
	0x0405 01029 (morse.go:31)	MOVW	$30471, ""..autotmp_1+62(SP)
	0x040c 01036 (morse.go:31)	LEAQ	type.map[[2]uint8]int32(SB), AX
	0x0413 01043 (morse.go:31)	MOVQ	AX, (SP)
	0x0417 01047 (morse.go:31)	MOVQ	""..autotmp_30+64(SP), CX
	0x041c 01052 (morse.go:31)	MOVQ	CX, 8(SP)
	0x0421 01057 (morse.go:31)	LEAQ	""..autotmp_1+62(SP), DX
	0x0426 01062 (morse.go:31)	MOVQ	DX, 16(SP)
	0x042b 01067 (morse.go:31)	PCDATA	$0, $1
	0x042b 01067 (morse.go:31)	CALL	runtime.mapassign(SB)
	0x0430 01072 (morse.go:31)	MOVQ	24(SP), AX
	0x0435 01077 (morse.go:31)	MOVL	$111, (AX)
	0x043b 01083 (morse.go:32)	MOVW	$0, ""..autotmp_1+62(SP)
	0x0442 01090 (morse.go:32)	MOVW	$-8955, ""..autotmp_1+62(SP)
	0x0449 01097 (morse.go:32)	LEAQ	type.map[[2]uint8]int32(SB), AX
	0x0450 01104 (morse.go:32)	MOVQ	AX, (SP)
	0x0454 01108 (morse.go:32)	MOVQ	""..autotmp_30+64(SP), CX
	0x0459 01113 (morse.go:32)	MOVQ	CX, 8(SP)
	0x045e 01118 (morse.go:32)	LEAQ	""..autotmp_1+62(SP), DX
	0x0463 01123 (morse.go:32)	MOVQ	DX, 16(SP)
	0x0468 01128 (morse.go:32)	PCDATA	$0, $1
	0x0468 01128 (morse.go:32)	CALL	runtime.mapassign(SB)
	0x046d 01133 (morse.go:32)	MOVQ	24(SP), AX
	0x0472 01138 (morse.go:32)	MOVL	$112, (AX)
	0x0478 01144 (morse.go:33)	MOVW	$0, ""..autotmp_1+62(SP)
	0x047f 01151 (morse.go:33)	MOVW	$-10467, ""..autotmp_1+62(SP)
	0x0486 01158 (morse.go:33)	LEAQ	type.map[[2]uint8]int32(SB), AX
	0x048d 01165 (morse.go:33)	MOVQ	AX, (SP)
	0x0491 01169 (morse.go:33)	MOVQ	""..autotmp_30+64(SP), CX
	0x0496 01174 (morse.go:33)	MOVQ	CX, 8(SP)
	0x049b 01179 (morse.go:33)	LEAQ	""..autotmp_1+62(SP), DX
	0x04a0 01184 (morse.go:33)	MOVQ	DX, 16(SP)
	0x04a5 01189 (morse.go:33)	PCDATA	$0, $1
	0x04a5 01189 (morse.go:33)	CALL	runtime.mapassign(SB)
	0x04aa 01194 (morse.go:33)	MOVQ	24(SP), AX
	0x04af 01199 (morse.go:33)	MOVL	$113, (AX)
	0x04b5 01205 (morse.go:34)	MOVW	$0, ""..autotmp_1+62(SP)
	0x04bc 01212 (morse.go:34)	MOVW	$23808, ""..autotmp_1+62(SP)
	0x04c3 01219 (morse.go:34)	LEAQ	type.map[[2]uint8]int32(SB), AX
	0x04ca 01226 (morse.go:34)	MOVQ	AX, (SP)
	0x04ce 01230 (morse.go:34)	MOVQ	""..autotmp_30+64(SP), CX
	0x04d3 01235 (morse.go:34)	MOVQ	CX, 8(SP)
	0x04d8 01240 (morse.go:34)	LEAQ	""..autotmp_1+62(SP), DX
	0x04dd 01245 (morse.go:34)	MOVQ	DX, 16(SP)
	0x04e2 01250 (morse.go:34)	PCDATA	$0, $1
	0x04e2 01250 (morse.go:34)	CALL	runtime.mapassign(SB)
	0x04e7 01255 (morse.go:34)	MOVQ	24(SP), AX
	0x04ec 01260 (morse.go:34)	MOVL	$114, (AX)
	0x04f2 01266 (morse.go:35)	MOVW	$0, ""..autotmp_1+62(SP)
	0x04f9 01273 (morse.go:35)	MOVW	$5376, ""..autotmp_1+62(SP)
	0x0500 01280 (morse.go:35)	LEAQ	type.map[[2]uint8]int32(SB), AX
	0x0507 01287 (morse.go:35)	MOVQ	AX, (SP)
	0x050b 01291 (morse.go:35)	MOVQ	""..autotmp_30+64(SP), CX
	0x0510 01296 (morse.go:35)	MOVQ	CX, 8(SP)
	0x0515 01301 (morse.go:35)	LEAQ	""..autotmp_1+62(SP), DX
	0x051a 01306 (morse.go:35)	MOVQ	DX, 16(SP)
	0x051f 01311 (morse.go:35)	PCDATA	$0, $1
	0x051f 01311 (morse.go:35)	CALL	runtime.mapassign(SB)
	0x0524 01316 (morse.go:35)	MOVQ	24(SP), AX
	0x0529 01321 (morse.go:35)	MOVL	$115, (AX)
	0x052f 01327 (morse.go:36)	MOVW	$0, ""..autotmp_1+62(SP)
	0x0536 01334 (morse.go:36)	MOVW	$1792, ""..autotmp_1+62(SP)
	0x053d 01341 (morse.go:36)	LEAQ	type.map[[2]uint8]int32(SB), AX
	0x0544 01348 (morse.go:36)	MOVQ	AX, (SP)
	0x0548 01352 (morse.go:36)	MOVQ	""..autotmp_30+64(SP), CX
	0x054d 01357 (morse.go:36)	MOVQ	CX, 8(SP)
	0x0552 01362 (morse.go:36)	LEAQ	""..autotmp_1+62(SP), DX
	0x0557 01367 (morse.go:36)	MOVQ	DX, 16(SP)
	0x055c 01372 (morse.go:36)	PCDATA	$0, $1
	0x055c 01372 (morse.go:36)	CALL	runtime.mapassign(SB)
	0x0561 01377 (morse.go:36)	MOVQ	24(SP), AX
	0x0566 01382 (morse.go:36)	MOVL	$116, (AX)
	0x056c 01388 (morse.go:37)	MOVW	$0, ""..autotmp_1+62(SP)
	0x0573 01395 (morse.go:37)	MOVW	$22272, ""..autotmp_1+62(SP)
	0x057a 01402 (morse.go:37)	LEAQ	type.map[[2]uint8]int32(SB), AX
	0x0581 01409 (morse.go:37)	MOVQ	AX, (SP)
	0x0585 01413 (morse.go:37)	MOVQ	""..autotmp_30+64(SP), CX
	0x058a 01418 (morse.go:37)	MOVQ	CX, 8(SP)
	0x058f 01423 (morse.go:37)	LEAQ	""..autotmp_1+62(SP), DX
	0x0594 01428 (morse.go:37)	MOVQ	DX, 16(SP)
	0x0599 01433 (morse.go:37)	PCDATA	$0, $1
	0x0599 01433 (morse.go:37)	CALL	runtime.mapassign(SB)
	0x059e 01438 (morse.go:37)	MOVQ	24(SP), AX
	0x05a3 01443 (morse.go:37)	MOVL	$117, (AX)
	0x05a9 01449 (morse.go:38)	MOVW	$0, ""..autotmp_1+62(SP)
	0x05b0 01456 (morse.go:38)	MOVW	$22273, ""..autotmp_1+62(SP)
	0x05b7 01463 (morse.go:38)	LEAQ	type.map[[2]uint8]int32(SB), AX
	0x05be 01470 (morse.go:38)	MOVQ	AX, (SP)
	0x05c2 01474 (morse.go:38)	MOVQ	""..autotmp_30+64(SP), CX
	0x05c7 01479 (morse.go:38)	MOVQ	CX, 8(SP)
	0x05cc 01484 (morse.go:38)	LEAQ	""..autotmp_1+62(SP), DX
	0x05d1 01489 (morse.go:38)	MOVQ	DX, 16(SP)
	0x05d6 01494 (morse.go:38)	PCDATA	$0, $1
	0x05d6 01494 (morse.go:38)	CALL	runtime.mapassign(SB)
	0x05db 01499 (morse.go:38)	MOVQ	24(SP), AX
	0x05e0 01504 (morse.go:38)	MOVL	$118, (AX)
	0x05e6 01510 (morse.go:39)	MOVW	$0, ""..autotmp_1+62(SP)
	0x05ed 01517 (morse.go:39)	MOVW	$30465, ""..autotmp_1+62(SP)
	0x05f4 01524 (morse.go:39)	LEAQ	type.map[[2]uint8]int32(SB), AX
	0x05fb 01531 (morse.go:39)	MOVQ	AX, (SP)
	0x05ff 01535 (morse.go:39)	MOVQ	""..autotmp_30+64(SP), CX
	0x0604 01540 (morse.go:39)	MOVQ	CX, 8(SP)
	0x0609 01545 (morse.go:39)	LEAQ	""..autotmp_1+62(SP), DX
	0x060e 01550 (morse.go:39)	MOVQ	DX, 16(SP)
	0x0613 01555 (morse.go:39)	PCDATA	$0, $1
	0x0613 01555 (morse.go:39)	CALL	runtime.mapassign(SB)
	0x0618 01560 (morse.go:39)	MOVQ	24(SP), AX
	0x061d 01565 (morse.go:39)	MOVL	$119, (AX)
	0x0623 01571 (morse.go:40)	MOVW	$0, ""..autotmp_1+62(SP)
	0x062a 01578 (morse.go:40)	MOVW	$22279, ""..autotmp_1+62(SP)
	0x0631 01585 (morse.go:40)	LEAQ	type.map[[2]uint8]int32(SB), AX
	0x0638 01592 (morse.go:40)	MOVQ	AX, (SP)
	0x063c 01596 (morse.go:40)	MOVQ	""..autotmp_30+64(SP), CX
	0x0641 01601 (morse.go:40)	MOVQ	CX, 8(SP)
	0x0646 01606 (morse.go:40)	LEAQ	""..autotmp_1+62(SP), DX
	0x064b 01611 (morse.go:40)	MOVQ	DX, 16(SP)
	0x0650 01616 (morse.go:40)	PCDATA	$0, $1
	0x0650 01616 (morse.go:40)	CALL	runtime.mapassign(SB)
	0x0655 01621 (morse.go:40)	MOVQ	24(SP), AX
	0x065a 01626 (morse.go:40)	MOVL	$120, (AX)
	0x0660 01632 (morse.go:41)	MOVW	$0, ""..autotmp_1+62(SP)
	0x0667 01639 (morse.go:41)	MOVW	$30493, ""..autotmp_1+62(SP)
	0x066e 01646 (morse.go:41)	LEAQ	type.map[[2]uint8]int32(SB), AX
	0x0675 01653 (morse.go:41)	MOVQ	AX, (SP)
	0x0679 01657 (morse.go:41)	MOVQ	""..autotmp_30+64(SP), CX
	0x067e 01662 (morse.go:41)	MOVQ	CX, 8(SP)
	0x0683 01667 (morse.go:41)	LEAQ	""..autotmp_1+62(SP), DX
	0x0688 01672 (morse.go:41)	MOVQ	DX, 16(SP)
	0x068d 01677 (morse.go:41)	PCDATA	$0, $1
	0x068d 01677 (morse.go:41)	CALL	runtime.mapassign(SB)
	0x0692 01682 (morse.go:41)	MOVQ	24(SP), AX
	0x0697 01687 (morse.go:41)	MOVL	$121, (AX)
	0x069d 01693 (morse.go:42)	MOVW	$0, ""..autotmp_1+62(SP)
	0x06a4 01700 (morse.go:42)	MOVW	$29959, ""..autotmp_1+62(SP)
	0x06ab 01707 (morse.go:42)	LEAQ	type.map[[2]uint8]int32(SB), AX
	0x06b2 01714 (morse.go:42)	MOVQ	AX, (SP)
	0x06b6 01718 (morse.go:42)	MOVQ	""..autotmp_30+64(SP), CX
	0x06bb 01723 (morse.go:42)	MOVQ	CX, 8(SP)
	0x06c0 01728 (morse.go:42)	LEAQ	""..autotmp_1+62(SP), DX
	0x06c5 01733 (morse.go:42)	MOVQ	DX, 16(SP)
	0x06ca 01738 (morse.go:42)	PCDATA	$0, $1
	0x06ca 01738 (morse.go:42)	CALL	runtime.mapassign(SB)
	0x06cf 01743 (morse.go:42)	MOVQ	24(SP), AX
	0x06d4 01748 (morse.go:42)	MOVL	$122, (AX)
	0x06da 01754 (morse.go:43)	MOVW	$0, ""..autotmp_1+62(SP)
	0x06e1 01761 (morse.go:43)	MOVW	$-1, ""..autotmp_1+62(SP)
	0x06e8 01768 (morse.go:43)	LEAQ	type.map[[2]uint8]int32(SB), AX
	0x06ef 01775 (morse.go:43)	MOVQ	AX, (SP)
	0x06f3 01779 (morse.go:43)	MOVQ	""..autotmp_30+64(SP), AX
	0x06f8 01784 (morse.go:43)	MOVQ	AX, 8(SP)
	0x06fd 01789 (morse.go:43)	LEAQ	""..autotmp_1+62(SP), CX
	0x0702 01794 (morse.go:43)	MOVQ	CX, 16(SP)
	0x0707 01799 (morse.go:43)	PCDATA	$0, $1
	0x0707 01799 (morse.go:43)	CALL	runtime.mapassign(SB)
	0x070c 01804 (morse.go:43)	MOVQ	24(SP), AX
	0x0711 01809 (morse.go:43)	MOVL	$32, (AX)
	0x0717 01815 (morse.go:16)	MOVL	runtime.writeBarrier(SB), AX
	0x071d 01821 (morse.go:16)	TESTL	AX, AX
	0x071f 01823 (morse.go:16)	JNE	1967
	0x0725 01829 (morse.go:16)	MOVQ	""..autotmp_30+64(SP), AX
	0x072a 01834 (morse.go:16)	MOVQ	AX, "".letters(SB)
	0x0731 01841 (morse.go:16)	LEAQ	go.string."cpuprofile"(SB), AX
	0x0738 01848 (morse.go:87)	MOVQ	AX, (SP)
	0x073c 01852 (morse.go:87)	MOVQ	$10, 8(SP)
	0x0745 01861 (morse.go:87)	MOVQ	$0, 16(SP)
	0x074e 01870 (morse.go:87)	MOVQ	$0, 24(SP)
	0x0757 01879 (morse.go:87)	LEAQ	go.string."write cpu profile to file"(SB), AX
	0x075e 01886 (morse.go:87)	MOVQ	AX, 32(SP)
	0x0763 01891 (morse.go:87)	MOVQ	$25, 40(SP)
	0x076c 01900 (morse.go:87)	PCDATA	$0, $0
	0x076c 01900 (morse.go:87)	CALL	flag.String(SB)
	0x0771 01905 (morse.go:87)	MOVQ	48(SP), AX
	0x0776 01910 (morse.go:87)	MOVL	runtime.writeBarrier(SB), CX
	0x077c 01916 (morse.go:87)	TESTL	CX, CX
	0x077e 01918 (morse.go:87)	JNE	1944
	0x0780 01920 (morse.go:87)	MOVQ	AX, "".cpuprofile(SB)
	0x0787 01927 (<autogenerated>:1)	MOVB	$2, "".initdone·(SB)
	0x078e 01934 (<autogenerated>:1)	MOVQ	72(SP), BP
	0x0793 01939 (<autogenerated>:1)	ADDQ	$80, SP
	0x0797 01943 (<autogenerated>:1)	RET
	0x0798 01944 (<autogenerated>:1)	LEAQ	"".cpuprofile(SB), CX
	0x079f 01951 (morse.go:87)	MOVQ	CX, (SP)
	0x07a3 01955 (morse.go:87)	MOVQ	AX, 8(SP)
	0x07a8 01960 (morse.go:87)	PCDATA	$0, $0
	0x07a8 01960 (morse.go:87)	CALL	runtime.writebarrierptr(SB)
	0x07ad 01965 (morse.go:87)	JMP	1927
	0x07af 01967 (morse.go:87)	LEAQ	"".letters(SB), AX
	0x07b6 01974 (morse.go:16)	MOVQ	AX, (SP)
	0x07ba 01978 (morse.go:16)	MOVQ	""..autotmp_30+64(SP), AX
	0x07bf 01983 (morse.go:16)	MOVQ	AX, 8(SP)
	0x07c4 01988 (morse.go:16)	PCDATA	$0, $0
	0x07c4 01988 (morse.go:16)	CALL	runtime.writebarrierptr(SB)
	0x07c9 01993 (morse.go:16)	JMP	1841
	0x07ce 01998 (morse.go:16)	NOP
	0x07ce 01998 (<autogenerated>:1)	PCDATA	$0, $-1
	0x07ce 01998 (<autogenerated>:1)	CALL	runtime.morestack_noctxt(SB)
	0x07d3 02003 (<autogenerated>:1)	JMP	0
	0x0000 64 48 8b 0c 25 00 00 00 00 48 3b 61 10 0f 86 bb  dH..%....H;a....
	0x0010 07 00 00 48 83 ec 50 48 89 6c 24 48 48 8d 6c 24  ...H..PH.l$HH.l$
	0x0020 48 0f b6 05 00 00 00 00 3c 01 76 0a 48 8b 6c 24  H.......<.v.H.l$
	0x0030 48 48 83 c4 50 c3 75 07 e8 00 00 00 00 0f 0b c6  HH..P.u.........
	0x0040 05 00 00 00 00 01 e8 00 00 00 00 e8 00 00 00 00  ................
	0x0050 e8 00 00 00 00 e8 00 00 00 00 e8 00 00 00 00 e8  ................
	0x0060 00 00 00 00 e8 00 00 00 00 e8 00 00 00 00 e8 00  ................
	0x0070 00 00 00 e8 00 00 00 00 48 8d 05 00 00 00 00 48  ........H......H
	0x0080 89 04 24 48 c7 44 24 08 1b 00 00 00 48 c7 44 24  ..$H.D$.....H.D$
	0x0090 10 00 00 00 00 48 c7 44 24 18 00 00 00 00 e8 00  .....H.D$.......
	0x00a0 00 00 00 48 8b 44 24 20 48 89 44 24 40 66 c7 44  ...H.D$ H.D$@f.D
	0x00b0 24 3e 00 00 66 c7 44 24 3e 00 17 48 8d 0d 00 00  $>..f.D$>..H....
	0x00c0 00 00 48 89 0c 24 48 89 44 24 08 48 8d 54 24 3e  ..H..$H.D$.H.T$>
	0x00d0 48 89 54 24 10 e8 00 00 00 00 48 8b 44 24 18 c7  H.T$......H.D$..
	0x00e0 00 61 00 00 00 66 c7 44 24 3e 00 00 66 c7 44 24  .a...f.D$>..f.D$
	0x00f0 3e 01 d5 48 8d 05 00 00 00 00 48 89 04 24 48 8b  >..H......H..$H.
	0x0100 4c 24 40 48 89 4c 24 08 48 8d 54 24 3e 48 89 54  L$@H.L$.H.T$>H.T
	0x0110 24 10 e8 00 00 00 00 48 8b 44 24 18 c7 00 62 00  $......H.D$...b.
	0x0120 00 00 66 c7 44 24 3e 00 00 66 c7 44 24 3e 07 5d  ..f.D$>..f.D$>.]
	0x0130 48 8d 05 00 00 00 00 48 89 04 24 48 8b 4c 24 40  H......H..$H.L$@
	0x0140 48 89 4c 24 08 48 8d 54 24 3e 48 89 54 24 10 e8  H.L$.H.T$>H.T$..
	0x0150 00 00 00 00 48 8b 44 24 18 c7 00 63 00 00 00 66  ....H.D$...c...f
	0x0160 c7 44 24 3e 00 00 66 c7 44 24 3e 00 75 48 8d 05  .D$>..f.D$>.uH..
	0x0170 00 00 00 00 48 89 04 24 48 8b 4c 24 40 48 89 4c  ....H..$H.L$@H.L
	0x0180 24 08 48 8d 54 24 3e 48 89 54 24 10 e8 00 00 00  $.H.T$>H.T$.....
	0x0190 00 48 8b 44 24 18 c7 00 64 00 00 00 66 c7 44 24  .H.D$...d...f.D$
	0x01a0 3e 00 00 66 c7 44 24 3e 00 01 48 8d 05 00 00 00  >..f.D$>..H.....
	0x01b0 00 48 89 04 24 48 8b 4c 24 40 48 89 4c 24 08 48  .H..$H.L$@H.L$.H
	0x01c0 8d 54 24 3e 48 89 54 24 10 e8 00 00 00 00 48 8b  .T$>H.T$......H.
	0x01d0 44 24 18 c7 00 65 00 00 00 66 c7 44 24 3e 00 00  D$...e...f.D$>..
	0x01e0 66 c7 44 24 3e 01 5d 48 8d 05 00 00 00 00 48 89  f.D$>.]H......H.
	0x01f0 04 24 48 8b 4c 24 40 48 89 4c 24 08 48 8d 54 24  .$H.L$@H.L$.H.T$
	0x0200 3e 48 89 54 24 10 e8 00 00 00 00 48 8b 44 24 18  >H.T$......H.D$.
	0x0210 c7 00 66 00 00 00 66 c7 44 24 3e 00 00 66 c7 44  ..f...f.D$>..f.D
	0x0220 24 3e 01 dd 48 8d 05 00 00 00 00 48 89 04 24 48  $>..H......H..$H
	0x0230 8b 4c 24 40 48 89 4c 24 08 48 8d 54 24 3e 48 89  .L$@H.L$.H.T$>H.
	0x0240 54 24 10 e8 00 00 00 00 48 8b 44 24 18 c7 00 67  T$......H.D$...g
	0x0250 00 00 00 66 c7 44 24 3e 00 00 66 c7 44 24 3e 00  ...f.D$>..f.D$>.
	0x0260 55 48 8d 05 00 00 00 00 48 89 04 24 48 8b 4c 24  UH......H..$H.L$
	0x0270 40 48 89 4c 24 08 48 8d 54 24 3e 48 89 54 24 10  @H.L$.H.T$>H.T$.
	0x0280 e8 00 00 00 00 48 8b 44 24 18 c7 00 68 00 00 00  .....H.D$...h...
	0x0290 66 c7 44 24 3e 00 00 66 c7 44 24 3e 00 05 48 8d  f.D$>..f.D$>..H.
	0x02a0 05 00 00 00 00 48 89 04 24 48 8b 4c 24 40 48 89  .....H..$H.L$@H.
	0x02b0 4c 24 08 48 8d 54 24 3e 48 89 54 24 10 e8 00 00  L$.H.T$>H.T$....
	0x02c0 00 00 48 8b 44 24 18 c7 00 69 00 00 00 66 c7 44  ..H.D$...i...f.D
	0x02d0 24 3e 00 00 66 c7 44 24 3e 17 77 48 8d 05 00 00  $>..f.D$>.wH....
	0x02e0 00 00 48 89 04 24 48 8b 4c 24 40 48 89 4c 24 08  ..H..$H.L$@H.L$.
	0x02f0 48 8d 54 24 3e 48 89 54 24 10 e8 00 00 00 00 48  H.T$>H.T$......H
	0x0300 8b 44 24 18 c7 00 6a 00 00 00 66 c7 44 24 3e 00  .D$...j...f.D$>.
	0x0310 00 66 c7 44 24 3e 01 d7 48 8d 05 00 00 00 00 48  .f.D$>..H......H
	0x0320 89 04 24 48 8b 4c 24 40 48 89 4c 24 08 48 8d 54  ..$H.L$@H.L$.H.T
	0x0330 24 3e 48 89 54 24 10 e8 00 00 00 00 48 8b 44 24  $>H.T$......H.D$
	0x0340 18 c7 00 6b 00 00 00 66 c7 44 24 3e 00 00 66 c7  ...k...f.D$>..f.
	0x0350 44 24 3e 01 75 48 8d 05 00 00 00 00 48 89 04 24  D$>.uH......H..$
	0x0360 48 8b 4c 24 40 48 89 4c 24 08 48 8d 54 24 3e 48  H.L$@H.L$.H.T$>H
	0x0370 89 54 24 10 e8 00 00 00 00 48 8b 44 24 18 c7 00  .T$......H.D$...
	0x0380 6c 00 00 00 66 c7 44 24 3e 00 00 66 c7 44 24 3e  l...f.D$>..f.D$>
	0x0390 00 77 48 8d 05 00 00 00 00 48 89 04 24 48 8b 4c  .wH......H..$H.L
	0x03a0 24 40 48 89 4c 24 08 48 8d 54 24 3e 48 89 54 24  $@H.L$.H.T$>H.T$
	0x03b0 10 e8 00 00 00 00 48 8b 44 24 18 c7 00 6d 00 00  ......H.D$...m..
	0x03c0 00 66 c7 44 24 3e 00 00 66 c7 44 24 3e 00 1d 48  .f.D$>..f.D$>..H
	0x03d0 8d 05 00 00 00 00 48 89 04 24 48 8b 4c 24 40 48  ......H..$H.L$@H
	0x03e0 89 4c 24 08 48 8d 54 24 3e 48 89 54 24 10 e8 00  .L$.H.T$>H.T$...
	0x03f0 00 00 00 48 8b 44 24 18 c7 00 6e 00 00 00 66 c7  ...H.D$...n...f.
	0x0400 44 24 3e 00 00 66 c7 44 24 3e 07 77 48 8d 05 00  D$>..f.D$>.wH...
	0x0410 00 00 00 48 89 04 24 48 8b 4c 24 40 48 89 4c 24  ...H..$H.L$@H.L$
	0x0420 08 48 8d 54 24 3e 48 89 54 24 10 e8 00 00 00 00  .H.T$>H.T$......
	0x0430 48 8b 44 24 18 c7 00 6f 00 00 00 66 c7 44 24 3e  H.D$...o...f.D$>
	0x0440 00 00 66 c7 44 24 3e 05 dd 48 8d 05 00 00 00 00  ..f.D$>..H......
	0x0450 48 89 04 24 48 8b 4c 24 40 48 89 4c 24 08 48 8d  H..$H.L$@H.L$.H.
	0x0460 54 24 3e 48 89 54 24 10 e8 00 00 00 00 48 8b 44  T$>H.T$......H.D
	0x0470 24 18 c7 00 70 00 00 00 66 c7 44 24 3e 00 00 66  $...p...f.D$>..f
	0x0480 c7 44 24 3e 1d d7 48 8d 05 00 00 00 00 48 89 04  .D$>..H......H..
	0x0490 24 48 8b 4c 24 40 48 89 4c 24 08 48 8d 54 24 3e  $H.L$@H.L$.H.T$>
	0x04a0 48 89 54 24 10 e8 00 00 00 00 48 8b 44 24 18 c7  H.T$......H.D$..
	0x04b0 00 71 00 00 00 66 c7 44 24 3e 00 00 66 c7 44 24  .q...f.D$>..f.D$
	0x04c0 3e 00 5d 48 8d 05 00 00 00 00 48 89 04 24 48 8b  >.]H......H..$H.
	0x04d0 4c 24 40 48 89 4c 24 08 48 8d 54 24 3e 48 89 54  L$@H.L$.H.T$>H.T
	0x04e0 24 10 e8 00 00 00 00 48 8b 44 24 18 c7 00 72 00  $......H.D$...r.
	0x04f0 00 00 66 c7 44 24 3e 00 00 66 c7 44 24 3e 00 15  ..f.D$>..f.D$>..
	0x0500 48 8d 05 00 00 00 00 48 89 04 24 48 8b 4c 24 40  H......H..$H.L$@
	0x0510 48 89 4c 24 08 48 8d 54 24 3e 48 89 54 24 10 e8  H.L$.H.T$>H.T$..
	0x0520 00 00 00 00 48 8b 44 24 18 c7 00 73 00 00 00 66  ....H.D$...s...f
	0x0530 c7 44 24 3e 00 00 66 c7 44 24 3e 00 07 48 8d 05  .D$>..f.D$>..H..
	0x0540 00 00 00 00 48 89 04 24 48 8b 4c 24 40 48 89 4c  ....H..$H.L$@H.L
	0x0550 24 08 48 8d 54 24 3e 48 89 54 24 10 e8 00 00 00  $.H.T$>H.T$.....
	0x0560 00 48 8b 44 24 18 c7 00 74 00 00 00 66 c7 44 24  .H.D$...t...f.D$
	0x0570 3e 00 00 66 c7 44 24 3e 00 57 48 8d 05 00 00 00  >..f.D$>.WH.....
	0x0580 00 48 89 04 24 48 8b 4c 24 40 48 89 4c 24 08 48  .H..$H.L$@H.L$.H
	0x0590 8d 54 24 3e 48 89 54 24 10 e8 00 00 00 00 48 8b  .T$>H.T$......H.
	0x05a0 44 24 18 c7 00 75 00 00 00 66 c7 44 24 3e 00 00  D$...u...f.D$>..
	0x05b0 66 c7 44 24 3e 01 57 48 8d 05 00 00 00 00 48 89  f.D$>.WH......H.
	0x05c0 04 24 48 8b 4c 24 40 48 89 4c 24 08 48 8d 54 24  .$H.L$@H.L$.H.T$
	0x05d0 3e 48 89 54 24 10 e8 00 00 00 00 48 8b 44 24 18  >H.T$......H.D$.
	0x05e0 c7 00 76 00 00 00 66 c7 44 24 3e 00 00 66 c7 44  ..v...f.D$>..f.D
	0x05f0 24 3e 01 77 48 8d 05 00 00 00 00 48 89 04 24 48  $>.wH......H..$H
	0x0600 8b 4c 24 40 48 89 4c 24 08 48 8d 54 24 3e 48 89  .L$@H.L$.H.T$>H.
	0x0610 54 24 10 e8 00 00 00 00 48 8b 44 24 18 c7 00 77  T$......H.D$...w
	0x0620 00 00 00 66 c7 44 24 3e 00 00 66 c7 44 24 3e 07  ...f.D$>..f.D$>.
	0x0630 57 48 8d 05 00 00 00 00 48 89 04 24 48 8b 4c 24  WH......H..$H.L$
	0x0640 40 48 89 4c 24 08 48 8d 54 24 3e 48 89 54 24 10  @H.L$.H.T$>H.T$.
	0x0650 e8 00 00 00 00 48 8b 44 24 18 c7 00 78 00 00 00  .....H.D$...x...
	0x0660 66 c7 44 24 3e 00 00 66 c7 44 24 3e 1d 77 48 8d  f.D$>..f.D$>.wH.
	0x0670 05 00 00 00 00 48 89 04 24 48 8b 4c 24 40 48 89  .....H..$H.L$@H.
	0x0680 4c 24 08 48 8d 54 24 3e 48 89 54 24 10 e8 00 00  L$.H.T$>H.T$....
	0x0690 00 00 48 8b 44 24 18 c7 00 79 00 00 00 66 c7 44  ..H.D$...y...f.D
	0x06a0 24 3e 00 00 66 c7 44 24 3e 07 75 48 8d 05 00 00  $>..f.D$>.uH....
	0x06b0 00 00 48 89 04 24 48 8b 4c 24 40 48 89 4c 24 08  ..H..$H.L$@H.L$.
	0x06c0 48 8d 54 24 3e 48 89 54 24 10 e8 00 00 00 00 48  H.T$>H.T$......H
	0x06d0 8b 44 24 18 c7 00 7a 00 00 00 66 c7 44 24 3e 00  .D$...z...f.D$>.
	0x06e0 00 66 c7 44 24 3e ff ff 48 8d 05 00 00 00 00 48  .f.D$>..H......H
	0x06f0 89 04 24 48 8b 44 24 40 48 89 44 24 08 48 8d 4c  ..$H.D$@H.D$.H.L
	0x0700 24 3e 48 89 4c 24 10 e8 00 00 00 00 48 8b 44 24  $>H.L$......H.D$
	0x0710 18 c7 00 20 00 00 00 8b 05 00 00 00 00 85 c0 0f  ... ............
	0x0720 85 8a 00 00 00 48 8b 44 24 40 48 89 05 00 00 00  .....H.D$@H.....
	0x0730 00 48 8d 05 00 00 00 00 48 89 04 24 48 c7 44 24  .H......H..$H.D$
	0x0740 08 0a 00 00 00 48 c7 44 24 10 00 00 00 00 48 c7  .....H.D$.....H.
	0x0750 44 24 18 00 00 00 00 48 8d 05 00 00 00 00 48 89  D$.....H......H.
	0x0760 44 24 20 48 c7 44 24 28 19 00 00 00 e8 00 00 00  D$ H.D$(........
	0x0770 00 48 8b 44 24 30 8b 0d 00 00 00 00 85 c9 75 18  .H.D$0........u.
	0x0780 48 89 05 00 00 00 00 c6 05 00 00 00 00 02 48 8b  H.............H.
	0x0790 6c 24 48 48 83 c4 50 c3 48 8d 0d 00 00 00 00 48  l$HH..P.H......H
	0x07a0 89 0c 24 48 89 44 24 08 e8 00 00 00 00 eb d8 48  ..$H.D$........H
	0x07b0 8d 05 00 00 00 00 48 89 04 24 48 8b 44 24 40 48  ......H..$H.D$@H
	0x07c0 89 44 24 08 e8 00 00 00 00 e9 63 ff ff ff e8 00  .D$.......c.....
	0x07d0 00 00 00 e9 28 f8 ff ff                          ....(...
	rel 5+4 t=16 TLS+0
	rel 36+4 t=15 "".initdone·+0
	rel 57+4 t=8 runtime.throwinit+0
	rel 65+4 t=15 "".initdone·+-1
	rel 71+4 t=8 bufio.init+0
	rel 76+4 t=8 bytes.init+0
	rel 81+4 t=8 flag.init+0
	rel 86+4 t=8 io.init+0
	rel 91+4 t=8 io/ioutil.init+0
	rel 96+4 t=8 log.init+0
	rel 101+4 t=8 os.init+0
	rel 106+4 t=8 runtime.init+0
	rel 111+4 t=8 runtime/pprof.init+0
	rel 116+4 t=8 strings.init+0
	rel 123+4 t=15 type.map[[2]uint8]int32+0
	rel 159+4 t=8 runtime.makemap+0
	rel 190+4 t=15 type.map[[2]uint8]int32+0
	rel 214+4 t=8 runtime.mapassign+0
	rel 246+4 t=15 type.map[[2]uint8]int32+0
	rel 275+4 t=8 runtime.mapassign+0
	rel 307+4 t=15 type.map[[2]uint8]int32+0
	rel 336+4 t=8 runtime.mapassign+0
	rel 368+4 t=15 type.map[[2]uint8]int32+0
	rel 397+4 t=8 runtime.mapassign+0
	rel 429+4 t=15 type.map[[2]uint8]int32+0
	rel 458+4 t=8 runtime.mapassign+0
	rel 490+4 t=15 type.map[[2]uint8]int32+0
	rel 519+4 t=8 runtime.mapassign+0
	rel 551+4 t=15 type.map[[2]uint8]int32+0
	rel 580+4 t=8 runtime.mapassign+0
	rel 612+4 t=15 type.map[[2]uint8]int32+0
	rel 641+4 t=8 runtime.mapassign+0
	rel 673+4 t=15 type.map[[2]uint8]int32+0
	rel 702+4 t=8 runtime.mapassign+0
	rel 734+4 t=15 type.map[[2]uint8]int32+0
	rel 763+4 t=8 runtime.mapassign+0
	rel 795+4 t=15 type.map[[2]uint8]int32+0
	rel 824+4 t=8 runtime.mapassign+0
	rel 856+4 t=15 type.map[[2]uint8]int32+0
	rel 885+4 t=8 runtime.mapassign+0
	rel 917+4 t=15 type.map[[2]uint8]int32+0
	rel 946+4 t=8 runtime.mapassign+0
	rel 978+4 t=15 type.map[[2]uint8]int32+0
	rel 1007+4 t=8 runtime.mapassign+0
	rel 1039+4 t=15 type.map[[2]uint8]int32+0
	rel 1068+4 t=8 runtime.mapassign+0
	rel 1100+4 t=15 type.map[[2]uint8]int32+0
	rel 1129+4 t=8 runtime.mapassign+0
	rel 1161+4 t=15 type.map[[2]uint8]int32+0
	rel 1190+4 t=8 runtime.mapassign+0
	rel 1222+4 t=15 type.map[[2]uint8]int32+0
	rel 1251+4 t=8 runtime.mapassign+0
	rel 1283+4 t=15 type.map[[2]uint8]int32+0
	rel 1312+4 t=8 runtime.mapassign+0
	rel 1344+4 t=15 type.map[[2]uint8]int32+0
	rel 1373+4 t=8 runtime.mapassign+0
	rel 1405+4 t=15 type.map[[2]uint8]int32+0
	rel 1434+4 t=8 runtime.mapassign+0
	rel 1466+4 t=15 type.map[[2]uint8]int32+0
	rel 1495+4 t=8 runtime.mapassign+0
	rel 1527+4 t=15 type.map[[2]uint8]int32+0
	rel 1556+4 t=8 runtime.mapassign+0
	rel 1588+4 t=15 type.map[[2]uint8]int32+0
	rel 1617+4 t=8 runtime.mapassign+0
	rel 1649+4 t=15 type.map[[2]uint8]int32+0
	rel 1678+4 t=8 runtime.mapassign+0
	rel 1710+4 t=15 type.map[[2]uint8]int32+0
	rel 1739+4 t=8 runtime.mapassign+0
	rel 1771+4 t=15 type.map[[2]uint8]int32+0
	rel 1800+4 t=8 runtime.mapassign+0
	rel 1817+4 t=15 runtime.writeBarrier+0
	rel 1837+4 t=15 "".letters+0
	rel 1844+4 t=15 go.string."cpuprofile"+0
	rel 1882+4 t=15 go.string."write cpu profile to file"+0
	rel 1901+4 t=8 flag.String+0
	rel 1912+4 t=15 runtime.writeBarrier+0
	rel 1923+4 t=15 "".cpuprofile+0
	rel 1929+4 t=15 "".initdone·+-1
	rel 1947+4 t=15 "".cpuprofile+0
	rel 1961+4 t=8 runtime.writebarrierptr+0
	rel 1970+4 t=15 "".letters+0
	rel 1989+4 t=8 runtime.writebarrierptr+0
	rel 1999+4 t=8 runtime.morestack_noctxt+0
go.info.io.Writer.Write SDWARFINFO dupok size=88
	0x0000 02 69 6f 2e 57 72 69 74 65 72 2e 57 72 69 74 65  .io.Writer.Write
	0x0010 00 00 00 00 00 00 00 00 00 00 00 00 00 00 00 00  ................
	0x0020 00 01 9c 01 05 2e 74 68 69 73 00 01 9c 00 00 00  ......this......
	0x0030 00 05 70 00 04 9c 11 10 22 00 00 00 00 05 6e 00  ..p.....".....n.
	0x0040 04 9c 11 28 22 00 00 00 00 05 65 72 72 00 04 9c  ...(".....err...
	0x0050 11 30 22 00 00 00 00 00                          .0".....
	rel 17+8 t=1 io.Writer.Write+0
	rel 25+8 t=1 io.Writer.Write+156
	rel 45+4 t=28 go.info.io.Writer+0
	rel 57+4 t=28 go.info.[]uint8+0
	rel 69+4 t=28 go.info.int+0
	rel 83+4 t=28 go.info.error+0
go.range.io.Writer.Write SDWARFRANGE dupok size=0
go.info.os.(*File).close SDWARFINFO dupok size=65
	0x0000 02 6f 73 2e 28 2a 46 69 6c 65 29 2e 63 6c 6f 73  .os.(*File).clos
	0x0010 65 00 00 00 00 00 00 00 00 00 00 00 00 00 00 00  e...............
	0x0020 00 00 01 9c 01 05 2e 74 68 69 73 00 01 9c 00 00  .......this.....
	0x0030 00 00 05 7e 72 31 00 04 9c 11 08 22 00 00 00 00  ...~r1....."....
	0x0040 00                                               .
	rel 18+8 t=1 os.(*File).close+0
	rel 26+8 t=1 os.(*File).close+36
	rel 46+4 t=28 go.info.*os.File+0
	rel 60+4 t=28 go.info.error+0
go.range.os.(*File).close SDWARFRANGE dupok size=0
go.info.io.Reader.Read SDWARFINFO dupok size=87
	0x0000 02 69 6f 2e 52 65 61 64 65 72 2e 52 65 61 64 00  .io.Reader.Read.
	0x0010 00 00 00 00 00 00 00 00 00 00 00 00 00 00 00 00  ................
	0x0020 01 9c 01 05 2e 74 68 69 73 00 01 9c 00 00 00 00  .....this.......
	0x0030 05 70 00 04 9c 11 10 22 00 00 00 00 05 6e 00 04  .p.....".....n..
	0x0040 9c 11 28 22 00 00 00 00 05 65 72 72 00 04 9c 11  ..(".....err....
	0x0050 30 22 00 00 00 00 00                             0".....
	rel 16+8 t=1 io.Reader.Read+0
	rel 24+8 t=1 io.Reader.Read+156
	rel 44+4 t=28 go.info.io.Reader+0
	rel 56+4 t=28 go.info.[]uint8+0
	rel 68+4 t=28 go.info.int+0
	rel 82+4 t=28 go.info.error+0
go.range.io.Reader.Read SDWARFRANGE dupok size=0
go.string."<nil>" SRODATA dupok size=5
	0x0000 3c 6e 69 6c 3e                                   <nil>
go.info."".decode SDWARFINFO size=213
	0x0000 02 22 22 2e 64 65 63 6f 64 65 00 00 00 00 00 00  ."".decode......
	0x0010 00 00 00 00 00 00 00 00 00 00 00 01 9c 01 04 62  ...............b
	0x0020 75 66 c2 b7 32 2e 6c 65 6e 00 05 9c 11 f0 7d 22  uf..2.len.....}"
	0x0030 00 00 00 00 04 62 75 66 c2 b7 32 2e 63 61 70 00  .....buf..2.cap.
	0x0040 05 9c 11 f8 7d 22 00 00 00 00 04 73 74 72 65 61  ....}".....strea
	0x0050 6d 00 05 9c 11 80 7e 22 00 00 00 00 04 65 72 72  m.....~".....err
	0x0060 2e 69 74 61 62 00 05 9c 11 88 7e 22 00 00 00 00  .itab.....~"....
	0x0070 04 65 72 72 2e 64 61 74 61 00 05 9c 11 90 7e 22  .err.data.....~"
	0x0080 00 00 00 00 04 62 c2 b7 32 00 05 9c 11 98 7e 22  .....b..2.....~"
	0x0090 00 00 00 00 04 62 75 66 c2 b7 32 2e 70 74 72 00  .....buf..2.ptr.
	0x00a0 05 9c 11 a0 7e 22 00 00 00 00 04 26 74 6d 70 42  ....~".....&tmpB
	0x00b0 75 66 00 05 9c 11 a8 7e 22 00 00 00 00 05 72 00  uf.....~".....r.
	0x00c0 01 9c 00 00 00 00 05 7e 72 31 00 04 9c 11 10 22  .......~r1....."
	0x00d0 00 00 00 00 00                                   .....
	rel 11+8 t=1 "".decode+0
	rel 19+8 t=1 "".decode+1130
	rel 48+4 t=28 go.info.int+0
	rel 70+4 t=28 go.info.int+0
	rel 88+4 t=28 go.info.*bufio.Reader+0
	rel 108+4 t=28 go.info.*uint8+0
	rel 128+4 t=28 go.info.*uint8+0
	rel 144+4 t=28 go.info.*bytes.Buffer+0
	rel 166+4 t=28 go.info.*uint8+0
	rel 185+4 t=28 go.info.*[2]uint8+0
	rel 194+4 t=28 go.info.io.Reader+0
	rel 208+4 t=28 go.info.string+0
go.range."".decode SDWARFRANGE size=0
go.string."HEllo" SRODATA dupok size=5
	0x0000 48 45 6c 6c 6f                                   HEllo
go.info."".decodeToChannel SDWARFINFO size=61
	0x0000 02 22 22 2e 64 65 63 6f 64 65 54 6f 43 68 61 6e  ."".decodeToChan
	0x0010 6e 65 6c 00 00 00 00 00 00 00 00 00 00 00 00 00  nel.............
	0x0020 00 00 00 00 01 9c 01 05 72 00 01 9c 00 00 00 00  ........r.......
	0x0030 05 63 00 04 9c 11 10 22 00 00 00 00 00           .c.....".....
	rel 20+8 t=1 "".decodeToChannel+0
	rel 28+8 t=1 "".decodeToChannel+161
	rel 44+4 t=28 go.info.io.Reader+0
	rel 56+4 t=28 go.info.chan string+0
go.range."".decodeToChannel SDWARFRANGE size=0
go.info."".encode SDWARFINFO size=171
	0x0000 02 22 22 2e 65 6e 63 6f 64 65 00 00 00 00 00 00  ."".encode......
	0x0010 00 00 00 00 00 00 00 00 00 00 00 01 9c 01 04 6b  ...............k
	0x0020 65 79 00 05 9c 11 e2 7e 22 00 00 00 00 04 6c 65  ey.....~".....le
	0x0030 74 74 65 72 00 05 9c 11 e4 7e 22 00 00 00 00 04  tter.....~".....
	0x0040 62 75 66 c2 b7 32 2e 6c 65 6e 00 05 9c 11 e8 7e  buf..2.len.....~
	0x0050 22 00 00 00 00 04 62 75 66 c2 b7 32 2e 63 61 70  ".....buf..2.cap
	0x0060 00 05 9c 11 f0 7e 22 00 00 00 00 04 62 c2 b7 32  .....~".....b..2
	0x0070 00 05 9c 11 80 7f 22 00 00 00 00 04 62 75 66 c2  ......".....buf.
	0x0080 b7 32 2e 70 74 72 00 05 9c 11 88 7f 22 00 00 00  .2.ptr......"...
	0x0090 00 05 73 74 72 00 01 9c 00 00 00 00 05 7e 72 31  ..str........~r1
	0x00a0 00 04 9c 11 10 22 00 00 00 00 00                 .....".....
	rel 11+8 t=1 "".encode+0
	rel 19+8 t=1 "".encode+619
	rel 41+4 t=28 go.info.[2]uint8+0
	rel 59+4 t=28 go.info.int32+0
	rel 81+4 t=28 go.info.int+0
	rel 103+4 t=28 go.info.int+0
	rel 119+4 t=28 go.info.*bytes.Buffer+0
	rel 141+4 t=28 go.info.*uint8+0
	rel 152+4 t=28 go.info.string+0
	rel 166+4 t=28 go.info.[]uint8+0
go.range."".encode SDWARFRANGE size=0
go.string."apple " SRODATA dupok size=6
	0x0000 61 70 70 6c 65 20                                apple 
go.info."".createTestData SDWARFINFO size=140
	0x0000 02 22 22 2e 63 72 65 61 74 65 54 65 73 74 44 61  ."".createTestDa
	0x0010 74 61 00 00 00 00 00 00 00 00 00 00 00 00 00 00  ta..............
	0x0020 00 00 00 01 9c 01 04 69 00 04 9c 11 48 22 00 00  .......i....H"..
	0x0030 00 00 04 62 75 66 c2 b7 32 2e 6c 65 6e 00 04 9c  ...buf..2.len...
	0x0040 11 50 22 00 00 00 00 04 62 75 66 c2 b7 32 2e 63  .P".....buf..2.c
	0x0050 61 70 00 04 9c 11 58 22 00 00 00 00 04 62 c2 b7  ap....X".....b..
	0x0060 32 00 04 9c 11 60 22 00 00 00 00 04 62 75 66 c2  2....`".....buf.
	0x0070 b7 32 2e 70 74 72 00 04 9c 11 68 22 00 00 00 00  .2.ptr....h"....
	0x0080 05 7e 72 30 00 01 9c 00 00 00 00 00              .~r0........
	rel 19+8 t=1 "".createTestData+0
	rel 27+8 t=1 "".createTestData+380
	rel 46+4 t=28 go.info.int+0
	rel 67+4 t=28 go.info.int+0
	rel 88+4 t=28 go.info.int+0
	rel 103+4 t=28 go.info.*bytes.Buffer+0
	rel 124+4 t=28 go.info.*uint8+0
	rel 135+4 t=28 go.info.[]uint8+0
go.range."".createTestData SDWARFRANGE size=0
go.string."data.dat" SRODATA dupok size=8
	0x0000 64 61 74 61 2e 64 61 74                          data.dat
go.info."".main SDWARFINFO size=126
	0x0000 02 22 22 2e 6d 61 69 6e 00 00 00 00 00 00 00 00  ."".main........
	0x0010 00 00 00 00 00 00 00 00 00 01 9c 01 04 69 00 05  .............i..
	0x0020 9c 11 a0 7f 22 00 00 00 00 04 64 61 74 61 2e 6c  ....".....data.l
	0x0030 65 6e 00 05 9c 11 a8 7f 22 00 00 00 00 04 64 61  en......".....da
	0x0040 74 61 2e 63 61 70 00 05 9c 11 b0 7f 22 00 00 00  ta.cap......"...
	0x0050 00 04 66 00 04 9c 11 48 22 00 00 00 00 04 64 61  ..f....H".....da
	0x0060 74 61 2e 70 74 72 00 04 9c 11 50 22 00 00 00 00  ta.ptr....P"....
	0x0070 04 63 68 00 04 9c 11 58 22 00 00 00 00 00        .ch....X".....
	rel 9+8 t=1 "".main+0
	rel 17+8 t=1 "".main+698
	rel 37+4 t=28 go.info.int+0
	rel 57+4 t=28 go.info.int+0
	rel 77+4 t=28 go.info.int+0
	rel 89+4 t=28 go.info.*os.File+0
	rel 108+4 t=28 go.info.*uint8+0
	rel 121+4 t=28 go.info.chan string+0
go.range."".main SDWARFRANGE size=0
go.string."cpuprofile" SRODATA dupok size=10
	0x0000 63 70 75 70 72 6f 66 69 6c 65                    cpuprofile
go.string."" SRODATA dupok size=0
go.string."write cpu profile to file" SRODATA dupok size=25
	0x0000 77 72 69 74 65 20 63 70 75 20 70 72 6f 66 69 6c  write cpu profil
	0x0010 65 20 74 6f 20 66 69 6c 65                       e to file
go.info."".init SDWARFINFO size=29
	0x0000 02 22 22 2e 69 6e 69 74 00 00 00 00 00 00 00 00  ."".init........
	0x0010 00 00 00 00 00 00 00 00 00 01 9c 01 00           .............
	rel 9+8 t=1 "".init+0
	rel 17+8 t=1 "".init+2008
go.range."".init SDWARFRANGE size=0
"".letters SBSS size=8
"".cpuprofile SBSS size=8
"".initdone· SNOPTRBSS size=1
"".decodeToChannel·f SRODATA dupok size=8
	0x0000 00 00 00 00 00 00 00 00                          ........
	rel 0+8 t=1 "".decodeToChannel+0
runtime/pprof.StopCPUProfile·f SRODATA dupok size=8
	0x0000 00 00 00 00 00 00 00 00                          ........
	rel 0+8 t=1 runtime/pprof.StopCPUProfile+0
runtime.gcbits.01 SRODATA dupok size=1
	0x0000 01                                               .
type..namedata.*[]uint8- SRODATA dupok size=11
	0x0000 00 00 08 2a 5b 5d 75 69 6e 74 38                 ...*[]uint8
type.*[]uint8 SRODATA dupok size=56
	0x0000 08 00 00 00 00 00 00 00 08 00 00 00 00 00 00 00  ................
	0x0010 a5 8e d0 69 00 08 08 36 00 00 00 00 00 00 00 00  ...i...6........
	0x0020 00 00 00 00 00 00 00 00 00 00 00 00 00 00 00 00  ................
	0x0030 00 00 00 00 00 00 00 00                          ........
	rel 24+8 t=1 runtime.algarray+80
	rel 32+8 t=1 runtime.gcbits.01+0
	rel 40+4 t=5 type..namedata.*[]uint8-+0
	rel 48+8 t=1 type.[]uint8+0
type.[]uint8 SRODATA dupok size=56
	0x0000 18 00 00 00 00 00 00 00 08 00 00 00 00 00 00 00  ................
	0x0010 df 7e 2e 38 02 08 08 17 00 00 00 00 00 00 00 00  .~.8............
	0x0020 00 00 00 00 00 00 00 00 00 00 00 00 00 00 00 00  ................
	0x0030 00 00 00 00 00 00 00 00                          ........
	rel 24+8 t=1 runtime.algarray+0
	rel 32+8 t=1 runtime.gcbits.01+0
	rel 40+4 t=5 type..namedata.*[]uint8-+0
	rel 44+4 t=6 type.*[]uint8+0
	rel 48+8 t=1 type.uint8+0
runtime.gcbits. SRODATA dupok size=0
type..namedata.*[2]uint8- SRODATA dupok size=12
	0x0000 00 00 09 2a 5b 32 5d 75 69 6e 74 38              ...*[2]uint8
type.[2]uint8 SRODATA dupok size=72
	0x0000 02 00 00 00 00 00 00 00 00 00 00 00 00 00 00 00  ................
	0x0010 a2 81 fb 46 02 01 01 91 00 00 00 00 00 00 00 00  ...F............
	0x0020 00 00 00 00 00 00 00 00 00 00 00 00 00 00 00 00  ................
	0x0030 00 00 00 00 00 00 00 00 00 00 00 00 00 00 00 00  ................
	0x0040 02 00 00 00 00 00 00 00                          ........
	rel 24+8 t=1 runtime.algarray+48
	rel 32+8 t=1 runtime.gcbits.+0
	rel 40+4 t=5 type..namedata.*[2]uint8-+0
	rel 44+4 t=6 type.*[2]uint8+0
	rel 48+8 t=1 type.uint8+0
	rel 56+8 t=1 type.[]uint8+0
type.*[2]uint8 SRODATA dupok size=56
	0x0000 08 00 00 00 00 00 00 00 08 00 00 00 00 00 00 00  ................
	0x0010 02 9e fe b0 00 08 08 36 00 00 00 00 00 00 00 00  .......6........
	0x0020 00 00 00 00 00 00 00 00 00 00 00 00 00 00 00 00  ................
	0x0030 00 00 00 00 00 00 00 00                          ........
	rel 24+8 t=1 runtime.algarray+80
	rel 32+8 t=1 runtime.gcbits.01+0
	rel 40+4 t=5 type..namedata.*[2]uint8-+0
	rel 48+8 t=1 type.[2]uint8+0
type..namedata.*interface {}- SRODATA dupok size=16
	0x0000 00 00 0d 2a 69 6e 74 65 72 66 61 63 65 20 7b 7d  ...*interface {}
type.*interface {} SRODATA dupok size=56
	0x0000 08 00 00 00 00 00 00 00 08 00 00 00 00 00 00 00  ................
	0x0010 4f 0f 96 9d 00 08 08 36 00 00 00 00 00 00 00 00  O......6........
	0x0020 00 00 00 00 00 00 00 00 00 00 00 00 00 00 00 00  ................
	0x0030 00 00 00 00 00 00 00 00                          ........
	rel 24+8 t=1 runtime.algarray+80
	rel 32+8 t=1 runtime.gcbits.01+0
	rel 40+4 t=5 type..namedata.*interface {}-+0
	rel 48+8 t=1 type.interface {}+0
runtime.gcbits.03 SRODATA dupok size=1
	0x0000 03                                               .
type.interface {} SRODATA dupok size=80
	0x0000 10 00 00 00 00 00 00 00 10 00 00 00 00 00 00 00  ................
	0x0010 e7 57 a0 18 02 08 08 14 00 00 00 00 00 00 00 00  .W..............
	0x0020 00 00 00 00 00 00 00 00 00 00 00 00 00 00 00 00  ................
	0x0030 00 00 00 00 00 00 00 00 00 00 00 00 00 00 00 00  ................
	0x0040 00 00 00 00 00 00 00 00 00 00 00 00 00 00 00 00  ................
	rel 24+8 t=1 runtime.algarray+144
	rel 32+8 t=1 runtime.gcbits.03+0
	rel 40+4 t=5 type..namedata.*interface {}-+0
	rel 44+4 t=6 type.*interface {}+0
	rel 56+8 t=1 type.interface {}+80
type..namedata.*[]interface {}- SRODATA dupok size=18
	0x0000 00 00 0f 2a 5b 5d 69 6e 74 65 72 66 61 63 65 20  ...*[]interface 
	0x0010 7b 7d                                            {}
type.*[]interface {} SRODATA dupok size=56
	0x0000 08 00 00 00 00 00 00 00 08 00 00 00 00 00 00 00  ................
	0x0010 f3 04 9a e7 00 08 08 36 00 00 00 00 00 00 00 00  .......6........
	0x0020 00 00 00 00 00 00 00 00 00 00 00 00 00 00 00 00  ................
	0x0030 00 00 00 00 00 00 00 00                          ........
	rel 24+8 t=1 runtime.algarray+80
	rel 32+8 t=1 runtime.gcbits.01+0
	rel 40+4 t=5 type..namedata.*[]interface {}-+0
	rel 48+8 t=1 type.[]interface {}+0
type.[]interface {} SRODATA dupok size=56
	0x0000 18 00 00 00 00 00 00 00 08 00 00 00 00 00 00 00  ................
	0x0010 70 93 ea 2f 02 08 08 17 00 00 00 00 00 00 00 00  p../............
	0x0020 00 00 00 00 00 00 00 00 00 00 00 00 00 00 00 00  ................
	0x0030 00 00 00 00 00 00 00 00                          ........
	rel 24+8 t=1 runtime.algarray+0
	rel 32+8 t=1 runtime.gcbits.01+0
	rel 40+4 t=5 type..namedata.*[]interface {}-+0
	rel 44+4 t=6 type.*[]interface {}+0
	rel 48+8 t=1 type.interface {}+0
type..namedata.*[1]interface {}- SRODATA dupok size=19
	0x0000 00 00 10 2a 5b 31 5d 69 6e 74 65 72 66 61 63 65  ...*[1]interface
	0x0010 20 7b 7d                                          {}
type.*[1]interface {} SRODATA dupok size=56
	0x0000 08 00 00 00 00 00 00 00 08 00 00 00 00 00 00 00  ................
	0x0010 bf 03 a8 35 00 08 08 36 00 00 00 00 00 00 00 00  ...5...6........
	0x0020 00 00 00 00 00 00 00 00 00 00 00 00 00 00 00 00  ................
	0x0030 00 00 00 00 00 00 00 00                          ........
	rel 24+8 t=1 runtime.algarray+80
	rel 32+8 t=1 runtime.gcbits.01+0
	rel 40+4 t=5 type..namedata.*[1]interface {}-+0
	rel 48+8 t=1 type.[1]interface {}+0
type.[1]interface {} SRODATA dupok size=72
	0x0000 10 00 00 00 00 00 00 00 10 00 00 00 00 00 00 00  ................
	0x0010 50 91 5b fa 02 08 08 11 00 00 00 00 00 00 00 00  P.[.............
	0x0020 00 00 00 00 00 00 00 00 00 00 00 00 00 00 00 00  ................
	0x0030 00 00 00 00 00 00 00 00 00 00 00 00 00 00 00 00  ................
	0x0040 01 00 00 00 00 00 00 00                          ........
	rel 24+8 t=1 runtime.algarray+144
	rel 32+8 t=1 runtime.gcbits.03+0
	rel 40+4 t=5 type..namedata.*[1]interface {}-+0
	rel 44+4 t=6 type.*[1]interface {}+0
	rel 48+8 t=1 type.interface {}+0
	rel 56+8 t=1 type.[]interface {}+0
type..namedata.*chan string- SRODATA dupok size=15
	0x0000 00 00 0c 2a 63 68 61 6e 20 73 74 72 69 6e 67     ...*chan string
type.*chan string SRODATA dupok size=56
	0x0000 08 00 00 00 00 00 00 00 08 00 00 00 00 00 00 00  ................
	0x0010 f4 25 61 85 00 08 08 36 00 00 00 00 00 00 00 00  .%a....6........
	0x0020 00 00 00 00 00 00 00 00 00 00 00 00 00 00 00 00  ................
	0x0030 00 00 00 00 00 00 00 00                          ........
	rel 24+8 t=1 runtime.algarray+80
	rel 32+8 t=1 runtime.gcbits.01+0
	rel 40+4 t=5 type..namedata.*chan string-+0
	rel 48+8 t=1 type.chan string+0
type.chan string SRODATA dupok size=64
	0x0000 08 00 00 00 00 00 00 00 08 00 00 00 00 00 00 00  ................
	0x0010 8d 9e 8b c9 02 08 08 32 00 00 00 00 00 00 00 00  .......2........
	0x0020 00 00 00 00 00 00 00 00 00 00 00 00 00 00 00 00  ................
	0x0030 00 00 00 00 00 00 00 00 03 00 00 00 00 00 00 00  ................
	rel 24+8 t=1 runtime.algarray+80
	rel 32+8 t=1 runtime.gcbits.01+0
	rel 40+4 t=5 type..namedata.*chan string-+0
	rel 44+4 t=6 type.*chan string+0
	rel 48+8 t=1 type.string+0
type..namedata.*[8]uint8- SRODATA dupok size=12
	0x0000 00 00 09 2a 5b 38 5d 75 69 6e 74 38              ...*[8]uint8
type.*[8]uint8 SRODATA dupok size=56
	0x0000 08 00 00 00 00 00 00 00 08 00 00 00 00 00 00 00  ................
	0x0010 a9 89 a5 7a 00 08 08 36 00 00 00 00 00 00 00 00  ...z...6........
	0x0020 00 00 00 00 00 00 00 00 00 00 00 00 00 00 00 00  ................
	0x0030 00 00 00 00 00 00 00 00                          ........
	rel 24+8 t=1 runtime.algarray+80
	rel 32+8 t=1 runtime.gcbits.01+0
	rel 40+4 t=5 type..namedata.*[8]uint8-+0
	rel 48+8 t=1 type.[8]uint8+0
type.[8]uint8 SRODATA dupok size=72
	0x0000 08 00 00 00 00 00 00 00 00 00 00 00 00 00 00 00  ................
	0x0010 3e f9 30 b4 02 01 01 91 00 00 00 00 00 00 00 00  >.0.............
	0x0020 00 00 00 00 00 00 00 00 00 00 00 00 00 00 00 00  ................
	0x0030 00 00 00 00 00 00 00 00 00 00 00 00 00 00 00 00  ................
	0x0040 08 00 00 00 00 00 00 00                          ........
	rel 24+8 t=1 runtime.algarray+80
	rel 32+8 t=1 runtime.gcbits.+0
	rel 40+4 t=5 type..namedata.*[8]uint8-+0
	rel 44+4 t=6 type.*[8]uint8+0
	rel 48+8 t=1 type.uint8+0
	rel 56+8 t=1 type.[]uint8+0
type..namedata.*[][2]uint8- SRODATA dupok size=14
	0x0000 00 00 0b 2a 5b 5d 5b 32 5d 75 69 6e 74 38        ...*[][2]uint8
type.*[][2]uint8 SRODATA dupok size=56
	0x0000 08 00 00 00 00 00 00 00 08 00 00 00 00 00 00 00  ................
	0x0010 84 d7 8d f9 00 08 08 36 00 00 00 00 00 00 00 00  .......6........
	0x0020 00 00 00 00 00 00 00 00 00 00 00 00 00 00 00 00  ................
	0x0030 00 00 00 00 00 00 00 00                          ........
	rel 24+8 t=1 runtime.algarray+80
	rel 32+8 t=1 runtime.gcbits.01+0
	rel 40+4 t=5 type..namedata.*[][2]uint8-+0
	rel 48+8 t=1 type.[][2]uint8+0
type.[][2]uint8 SRODATA dupok size=56
	0x0000 18 00 00 00 00 00 00 00 08 00 00 00 00 00 00 00  ................
	0x0010 31 88 9c 5e 02 08 08 17 00 00 00 00 00 00 00 00  1..^............
	0x0020 00 00 00 00 00 00 00 00 00 00 00 00 00 00 00 00  ................
	0x0030 00 00 00 00 00 00 00 00                          ........
	rel 24+8 t=1 runtime.algarray+0
	rel 32+8 t=1 runtime.gcbits.01+0
	rel 40+4 t=5 type..namedata.*[][2]uint8-+0
	rel 44+4 t=6 type.*[][2]uint8+0
	rel 48+8 t=1 type.[2]uint8+0
type..namedata.*[8][2]uint8- SRODATA dupok size=15
	0x0000 00 00 0c 2a 5b 38 5d 5b 32 5d 75 69 6e 74 38     ...*[8][2]uint8
type.*[8][2]uint8 SRODATA dupok size=56
	0x0000 08 00 00 00 00 00 00 00 08 00 00 00 00 00 00 00  ................
	0x0010 fc 5c d2 a8 00 08 08 36 00 00 00 00 00 00 00 00  .\.....6........
	0x0020 00 00 00 00 00 00 00 00 00 00 00 00 00 00 00 00  ................
	0x0030 00 00 00 00 00 00 00 00                          ........
	rel 24+8 t=1 runtime.algarray+80
	rel 32+8 t=1 runtime.gcbits.01+0
	rel 40+4 t=5 type..namedata.*[8][2]uint8-+0
	rel 48+8 t=1 type.noalg.[8][2]uint8+0
type.noalg.[8][2]uint8 SRODATA dupok size=72
	0x0000 10 00 00 00 00 00 00 00 00 00 00 00 00 00 00 00  ................
	0x0010 60 c3 98 07 02 01 01 91 00 00 00 00 00 00 00 00  `...............
	0x0020 00 00 00 00 00 00 00 00 00 00 00 00 00 00 00 00  ................
	0x0030 00 00 00 00 00 00 00 00 00 00 00 00 00 00 00 00  ................
	0x0040 08 00 00 00 00 00 00 00                          ........
	rel 24+8 t=1 runtime.algarray+0
	rel 32+8 t=1 runtime.gcbits.+0
	rel 40+4 t=5 type..namedata.*[8][2]uint8-+0
	rel 44+4 t=6 type.*[8][2]uint8+0
	rel 48+8 t=1 type.[2]uint8+0
	rel 56+8 t=1 type.[][2]uint8+0
type..namedata.*[]int32- SRODATA dupok size=11
	0x0000 00 00 08 2a 5b 5d 69 6e 74 33 32                 ...*[]int32
type.*[]int32 SRODATA dupok size=56
	0x0000 08 00 00 00 00 00 00 00 08 00 00 00 00 00 00 00  ................
	0x0010 5c 7e 6d 23 00 08 08 36 00 00 00 00 00 00 00 00  \~m#...6........
	0x0020 00 00 00 00 00 00 00 00 00 00 00 00 00 00 00 00  ................
	0x0030 00 00 00 00 00 00 00 00                          ........
	rel 24+8 t=1 runtime.algarray+80
	rel 32+8 t=1 runtime.gcbits.01+0
	rel 40+4 t=5 type..namedata.*[]int32-+0
	rel 48+8 t=1 type.[]int32+0
type.[]int32 SRODATA dupok size=56
	0x0000 18 00 00 00 00 00 00 00 08 00 00 00 00 00 00 00  ................
	0x0010 16 2a 4d 73 02 08 08 17 00 00 00 00 00 00 00 00  .*Ms............
	0x0020 00 00 00 00 00 00 00 00 00 00 00 00 00 00 00 00  ................
	0x0030 00 00 00 00 00 00 00 00                          ........
	rel 24+8 t=1 runtime.algarray+0
	rel 32+8 t=1 runtime.gcbits.01+0
	rel 40+4 t=5 type..namedata.*[]int32-+0
	rel 44+4 t=6 type.*[]int32+0
	rel 48+8 t=1 type.int32+0
type..namedata.*[8]int32- SRODATA dupok size=12
	0x0000 00 00 09 2a 5b 38 5d 69 6e 74 33 32              ...*[8]int32
type.*[8]int32 SRODATA dupok size=56
	0x0000 08 00 00 00 00 00 00 00 08 00 00 00 00 00 00 00  ................
	0x0010 06 6d df 9e 00 08 08 36 00 00 00 00 00 00 00 00  .m.....6........
	0x0020 00 00 00 00 00 00 00 00 00 00 00 00 00 00 00 00  ................
	0x0030 00 00 00 00 00 00 00 00                          ........
	rel 24+8 t=1 runtime.algarray+80
	rel 32+8 t=1 runtime.gcbits.01+0
	rel 40+4 t=5 type..namedata.*[8]int32-+0
	rel 48+8 t=1 type.noalg.[8]int32+0
type.noalg.[8]int32 SRODATA dupok size=72
	0x0000 20 00 00 00 00 00 00 00 00 00 00 00 00 00 00 00   ...............
	0x0010 35 6a bb db 02 04 04 91 00 00 00 00 00 00 00 00  5j..............
	0x0020 00 00 00 00 00 00 00 00 00 00 00 00 00 00 00 00  ................
	0x0030 00 00 00 00 00 00 00 00 00 00 00 00 00 00 00 00  ................
	0x0040 08 00 00 00 00 00 00 00                          ........
	rel 24+8 t=1 runtime.algarray+0
	rel 32+8 t=1 runtime.gcbits.+0
	rel 40+4 t=5 type..namedata.*[8]int32-+0
	rel 44+4 t=6 type.*[8]int32+0
	rel 48+8 t=1 type.int32+0
	rel 56+8 t=1 type.[]int32+0
type..namedata.*map.bucket[[2]uint8]int32- SRODATA dupok size=29
	0x0000 00 00 1a 2a 6d 61 70 2e 62 75 63 6b 65 74 5b 5b  ...*map.bucket[[
	0x0010 32 5d 75 69 6e 74 38 5d 69 6e 74 33 32           2]uint8]int32
type.*map.bucket[[2]uint8]int32 SRODATA dupok size=56
	0x0000 08 00 00 00 00 00 00 00 08 00 00 00 00 00 00 00  ................
	0x0010 36 74 bc 39 00 08 08 36 00 00 00 00 00 00 00 00  6t.9...6........
	0x0020 00 00 00 00 00 00 00 00 00 00 00 00 00 00 00 00  ................
	0x0030 00 00 00 00 00 00 00 00                          ........
	rel 24+8 t=1 runtime.algarray+80
	rel 32+8 t=1 runtime.gcbits.01+0
	rel 40+4 t=5 type..namedata.*map.bucket[[2]uint8]int32-+0
	rel 48+8 t=1 type.noalg.map.bucket[[2]uint8]int32+0
type..importpath.. SRODATA dupok size=3
	0x0000 00 00 00                                         ...
type..namedata.topbits- SRODATA dupok size=10
	0x0000 00 00 07 74 6f 70 62 69 74 73                    ...topbits
type..namedata.keys- SRODATA dupok size=7
	0x0000 00 00 04 6b 65 79 73                             ...keys
type..namedata.values- SRODATA dupok size=9
	0x0000 00 00 06 76 61 6c 75 65 73                       ...values
type..namedata.overflow- SRODATA dupok size=11
	0x0000 00 00 08 6f 76 65 72 66 6c 6f 77                 ...overflow
type.noalg.map.bucket[[2]uint8]int32 SRODATA dupok size=176
	0x0000 40 00 00 00 00 00 00 00 00 00 00 00 00 00 00 00  @...............
	0x0010 7f 12 b0 99 02 08 08 99 00 00 00 00 00 00 00 00  ................
	0x0020 00 00 00 00 00 00 00 00 00 00 00 00 00 00 00 00  ................
	0x0030 00 00 00 00 00 00 00 00 00 00 00 00 00 00 00 00  ................
	0x0040 04 00 00 00 00 00 00 00 04 00 00 00 00 00 00 00  ................
	0x0050 00 00 00 00 00 00 00 00 00 00 00 00 00 00 00 00  ................
	0x0060 00 00 00 00 00 00 00 00 00 00 00 00 00 00 00 00  ................
	0x0070 00 00 00 00 00 00 00 00 10 00 00 00 00 00 00 00  ................
	0x0080 00 00 00 00 00 00 00 00 00 00 00 00 00 00 00 00  ................
	0x0090 30 00 00 00 00 00 00 00 00 00 00 00 00 00 00 00  0...............
	0x00a0 00 00 00 00 00 00 00 00 70 00 00 00 00 00 00 00  ........p.......
	rel 24+8 t=1 runtime.algarray+0
	rel 32+8 t=1 runtime.gcbits.+0
	rel 40+4 t=5 type..namedata.*map.bucket[[2]uint8]int32-+0
	rel 44+4 t=6 type.*map.bucket[[2]uint8]int32+0
	rel 48+8 t=1 type..importpath..+0
	rel 56+8 t=1 type.noalg.map.bucket[[2]uint8]int32+80
	rel 80+8 t=1 type..namedata.topbits-+0
	rel 88+8 t=1 type.[8]uint8+0
	rel 104+8 t=1 type..namedata.keys-+0
	rel 112+8 t=1 type.noalg.[8][2]uint8+0
	rel 128+8 t=1 type..namedata.values-+0
	rel 136+8 t=1 type.noalg.[8]int32+0
	rel 152+8 t=1 type..namedata.overflow-+0
	rel 160+8 t=1 type.uintptr+0
type..namedata.*map.hdr[[2]uint8]int32- SRODATA dupok size=26
	0x0000 00 00 17 2a 6d 61 70 2e 68 64 72 5b 5b 32 5d 75  ...*map.hdr[[2]u
	0x0010 69 6e 74 38 5d 69 6e 74 33 32                    int8]int32
type.*map.hdr[[2]uint8]int32 SRODATA dupok size=56
	0x0000 08 00 00 00 00 00 00 00 08 00 00 00 00 00 00 00  ................
	0x0010 70 7a fd b0 00 08 08 36 00 00 00 00 00 00 00 00  pz.....6........
	0x0020 00 00 00 00 00 00 00 00 00 00 00 00 00 00 00 00  ................
	0x0030 00 00 00 00 00 00 00 00                          ........
	rel 24+8 t=1 runtime.algarray+80
	rel 32+8 t=1 runtime.gcbits.01+0
	rel 40+4 t=5 type..namedata.*map.hdr[[2]uint8]int32-+0
	rel 48+8 t=1 type.noalg.map.hdr[[2]uint8]int32+0
runtime.gcbits.2c SRODATA dupok size=1
	0x0000 2c                                               ,
type..namedata.count- SRODATA dupok size=8
	0x0000 00 00 05 63 6f 75 6e 74                          ...count
type..namedata.flags- SRODATA dupok size=8
	0x0000 00 00 05 66 6c 61 67 73                          ...flags
type..namedata.B. SRODATA dupok size=4
	0x0000 01 00 01 42                                      ...B
type..namedata.noverflow- SRODATA dupok size=12
	0x0000 00 00 09 6e 6f 76 65 72 66 6c 6f 77              ...noverflow
type..namedata.hash0- SRODATA dupok size=8
	0x0000 00 00 05 68 61 73 68 30                          ...hash0
type..namedata.buckets- SRODATA dupok size=10
	0x0000 00 00 07 62 75 63 6b 65 74 73                    ...buckets
type..namedata.oldbuckets- SRODATA dupok size=13
	0x0000 00 00 0a 6f 6c 64 62 75 63 6b 65 74 73           ...oldbuckets
type..namedata.nevacuate- SRODATA dupok size=12
	0x0000 00 00 09 6e 65 76 61 63 75 61 74 65              ...nevacuate
type.noalg.map.hdr[[2]uint8]int32 SRODATA dupok size=296
	0x0000 30 00 00 00 00 00 00 00 30 00 00 00 00 00 00 00  0.......0.......
	0x0010 8a 81 48 9f 02 08 08 19 00 00 00 00 00 00 00 00  ..H.............
	0x0020 00 00 00 00 00 00 00 00 00 00 00 00 00 00 00 00  ................
	0x0030 00 00 00 00 00 00 00 00 00 00 00 00 00 00 00 00  ................
	0x0040 09 00 00 00 00 00 00 00 09 00 00 00 00 00 00 00  ................
	0x0050 00 00 00 00 00 00 00 00 00 00 00 00 00 00 00 00  ................
	0x0060 00 00 00 00 00 00 00 00 00 00 00 00 00 00 00 00  ................
	0x0070 00 00 00 00 00 00 00 00 10 00 00 00 00 00 00 00  ................
	0x0080 00 00 00 00 00 00 00 00 00 00 00 00 00 00 00 00  ................
	0x0090 12 00 00 00 00 00 00 00 00 00 00 00 00 00 00 00  ................
	0x00a0 00 00 00 00 00 00 00 00 14 00 00 00 00 00 00 00  ................
	0x00b0 00 00 00 00 00 00 00 00 00 00 00 00 00 00 00 00  ................
	0x00c0 18 00 00 00 00 00 00 00 00 00 00 00 00 00 00 00  ................
	0x00d0 00 00 00 00 00 00 00 00 20 00 00 00 00 00 00 00  ........ .......
	0x00e0 00 00 00 00 00 00 00 00 00 00 00 00 00 00 00 00  ................
	0x00f0 30 00 00 00 00 00 00 00 00 00 00 00 00 00 00 00  0...............
	0x0100 00 00 00 00 00 00 00 00 40 00 00 00 00 00 00 00  ........@.......
	0x0110 00 00 00 00 00 00 00 00 00 00 00 00 00 00 00 00  ................
	0x0120 50 00 00 00 00 00 00 00                          P.......
	rel 24+8 t=1 runtime.algarray+0
	rel 32+8 t=1 runtime.gcbits.2c+0
	rel 40+4 t=5 type..namedata.*map.hdr[[2]uint8]int32-+0
	rel 44+4 t=6 type.*map.hdr[[2]uint8]int32+0
	rel 48+8 t=1 type..importpath..+0
	rel 56+8 t=1 type.noalg.map.hdr[[2]uint8]int32+80
	rel 80+8 t=1 type..namedata.count-+0
	rel 88+8 t=1 type.int+0
	rel 104+8 t=1 type..namedata.flags-+0
	rel 112+8 t=1 type.uint8+0
	rel 128+8 t=1 type..namedata.B.+0
	rel 136+8 t=1 type.uint8+0
	rel 152+8 t=1 type..namedata.noverflow-+0
	rel 160+8 t=1 type.uint16+0
	rel 176+8 t=1 type..namedata.hash0-+0
	rel 184+8 t=1 type.uint32+0
	rel 200+8 t=1 type..namedata.buckets-+0
	rel 208+8 t=1 type.*map.bucket[[2]uint8]int32+0
	rel 224+8 t=1 type..namedata.oldbuckets-+0
	rel 232+8 t=1 type.*map.bucket[[2]uint8]int32+0
	rel 248+8 t=1 type..namedata.nevacuate-+0
	rel 256+8 t=1 type.uintptr+0
	rel 272+8 t=1 type..namedata.overflow-+0
	rel 280+8 t=1 type.unsafe.Pointer+0
type..namedata.*map[[2]uint8]int32- SRODATA dupok size=22
	0x0000 00 00 13 2a 6d 61 70 5b 5b 32 5d 75 69 6e 74 38  ...*map[[2]uint8
	0x0010 5d 69 6e 74 33 32                                ]int32
type.*map[[2]uint8]int32 SRODATA dupok size=56
	0x0000 08 00 00 00 00 00 00 00 08 00 00 00 00 00 00 00  ................
	0x0010 bf dc af dd 00 08 08 36 00 00 00 00 00 00 00 00  .......6........
	0x0020 00 00 00 00 00 00 00 00 00 00 00 00 00 00 00 00  ................
	0x0030 00 00 00 00 00 00 00 00                          ........
	rel 24+8 t=1 runtime.algarray+80
	rel 32+8 t=1 runtime.gcbits.01+0
	rel 40+4 t=5 type..namedata.*map[[2]uint8]int32-+0
	rel 48+8 t=1 type.map[[2]uint8]int32+0
type.map[[2]uint8]int32 SRODATA dupok size=88
	0x0000 08 00 00 00 00 00 00 00 08 00 00 00 00 00 00 00  ................
	0x0010 ae fe ac 7e 02 08 08 35 00 00 00 00 00 00 00 00  ...~...5........
	0x0020 00 00 00 00 00 00 00 00 00 00 00 00 00 00 00 00  ................
	0x0030 00 00 00 00 00 00 00 00 00 00 00 00 00 00 00 00  ................
	0x0040 00 00 00 00 00 00 00 00 00 00 00 00 00 00 00 00  ................
	0x0050 02 00 04 00 40 00 01 00                          ....@...
	rel 24+8 t=1 runtime.algarray+0
	rel 32+8 t=1 runtime.gcbits.01+0
	rel 40+4 t=5 type..namedata.*map[[2]uint8]int32-+0
	rel 44+4 t=6 type.*map[[2]uint8]int32+0
	rel 48+8 t=1 type.[2]uint8+0
	rel 56+8 t=1 type.int32+0
	rel 64+8 t=1 type.noalg.map.bucket[[2]uint8]int32+0
	rel 72+8 t=1 type.noalg.map.hdr[[2]uint8]int32+0
type..namedata.*map.iter[[2]uint8]int32- SRODATA dupok size=27
	0x0000 00 00 18 2a 6d 61 70 2e 69 74 65 72 5b 5b 32 5d  ...*map.iter[[2]
	0x0010 75 69 6e 74 38 5d 69 6e 74 33 32                 uint8]int32
type.*map.iter[[2]uint8]int32 SRODATA dupok size=56
	0x0000 08 00 00 00 00 00 00 00 08 00 00 00 00 00 00 00  ................
	0x0010 b0 22 a9 f4 00 08 08 36 00 00 00 00 00 00 00 00  .".....6........
	0x0020 00 00 00 00 00 00 00 00 00 00 00 00 00 00 00 00  ................
	0x0030 00 00 00 00 00 00 00 00                          ........
	rel 24+8 t=1 runtime.algarray+80
	rel 32+8 t=1 runtime.gcbits.01+0
	rel 40+4 t=5 type..namedata.*map.iter[[2]uint8]int32-+0
	rel 48+8 t=1 type.noalg.map.iter[[2]uint8]int32+0
runtime.gcbits.ff SRODATA dupok size=1
	0x0000 ff                                               .
type..namedata.key- SRODATA dupok size=6
	0x0000 00 00 03 6b 65 79                                ...key
type..namedata.val- SRODATA dupok size=6
	0x0000 00 00 03 76 61 6c                                ...val
type..namedata.t- SRODATA dupok size=4
	0x0000 00 00 01 74                                      ...t
type..namedata.h- SRODATA dupok size=4
	0x0000 00 00 01 68                                      ...h
type..namedata.bptr- SRODATA dupok size=7
	0x0000 00 00 04 62 70 74 72                             ...bptr
type..namedata.overflow0- SRODATA dupok size=12
	0x0000 00 00 09 6f 76 65 72 66 6c 6f 77 30              ...overflow0
type..namedata.overflow1- SRODATA dupok size=12
	0x0000 00 00 09 6f 76 65 72 66 6c 6f 77 31              ...overflow1
type..namedata.startBucket- SRODATA dupok size=14
	0x0000 00 00 0b 73 74 61 72 74 42 75 63 6b 65 74        ...startBucket
type..namedata.stuff- SRODATA dupok size=8
	0x0000 00 00 05 73 74 75 66 66                          ...stuff
type..namedata.bucket- SRODATA dupok size=9
	0x0000 00 00 06 62 75 63 6b 65 74                       ...bucket
type..namedata.checkBucket- SRODATA dupok size=14
	0x0000 00 00 0b 63 68 65 63 6b 42 75 63 6b 65 74        ...checkBucket
type.noalg.map.iter[[2]uint8]int32 SRODATA dupok size=368
	0x0000 60 00 00 00 00 00 00 00 40 00 00 00 00 00 00 00  `.......@.......
	0x0010 aa ab 9b ee 02 08 08 19 00 00 00 00 00 00 00 00  ................
	0x0020 00 00 00 00 00 00 00 00 00 00 00 00 00 00 00 00  ................
	0x0030 00 00 00 00 00 00 00 00 00 00 00 00 00 00 00 00  ................
	0x0040 0c 00 00 00 00 00 00 00 0c 00 00 00 00 00 00 00  ................
	0x0050 00 00 00 00 00 00 00 00 00 00 00 00 00 00 00 00  ................
	0x0060 00 00 00 00 00 00 00 00 00 00 00 00 00 00 00 00  ................
	0x0070 00 00 00 00 00 00 00 00 10 00 00 00 00 00 00 00  ................
	0x0080 00 00 00 00 00 00 00 00 00 00 00 00 00 00 00 00  ................
	0x0090 20 00 00 00 00 00 00 00 00 00 00 00 00 00 00 00   ...............
	0x00a0 00 00 00 00 00 00 00 00 30 00 00 00 00 00 00 00  ........0.......
	0x00b0 00 00 00 00 00 00 00 00 00 00 00 00 00 00 00 00  ................
	0x00c0 40 00 00 00 00 00 00 00 00 00 00 00 00 00 00 00  @...............
	0x00d0 00 00 00 00 00 00 00 00 50 00 00 00 00 00 00 00  ........P.......
	0x00e0 00 00 00 00 00 00 00 00 00 00 00 00 00 00 00 00  ................
	0x00f0 60 00 00 00 00 00 00 00 00 00 00 00 00 00 00 00  `...............
	0x0100 00 00 00 00 00 00 00 00 70 00 00 00 00 00 00 00  ........p.......
	0x0110 00 00 00 00 00 00 00 00 00 00 00 00 00 00 00 00  ................
	0x0120 80 00 00 00 00 00 00 00 00 00 00 00 00 00 00 00  ................
	0x0130 00 00 00 00 00 00 00 00 90 00 00 00 00 00 00 00  ................
	0x0140 00 00 00 00 00 00 00 00 00 00 00 00 00 00 00 00  ................
	0x0150 a0 00 00 00 00 00 00 00 00 00 00 00 00 00 00 00  ................
	0x0160 00 00 00 00 00 00 00 00 b0 00 00 00 00 00 00 00  ................
	rel 24+8 t=1 runtime.algarray+0
	rel 32+8 t=1 runtime.gcbits.ff+0
	rel 40+4 t=5 type..namedata.*map.iter[[2]uint8]int32-+0
	rel 44+4 t=6 type.*map.iter[[2]uint8]int32+0
	rel 48+8 t=1 type..importpath..+0
	rel 56+8 t=1 type.noalg.map.iter[[2]uint8]int32+80
	rel 80+8 t=1 type..namedata.key-+0
	rel 88+8 t=1 type.*[2]uint8+0
	rel 104+8 t=1 type..namedata.val-+0
	rel 112+8 t=1 type.*int32+0
	rel 128+8 t=1 type..namedata.t-+0
	rel 136+8 t=1 type.*uint8+0
	rel 152+8 t=1 type..namedata.h-+0
	rel 160+8 t=1 type.*map.hdr[[2]uint8]int32+0
	rel 176+8 t=1 type..namedata.buckets-+0
	rel 184+8 t=1 type.*map.bucket[[2]uint8]int32+0
	rel 200+8 t=1 type..namedata.bptr-+0
	rel 208+8 t=1 type.*map.bucket[[2]uint8]int32+0
	rel 224+8 t=1 type..namedata.overflow0-+0
	rel 232+8 t=1 type.unsafe.Pointer+0
	rel 248+8 t=1 type..namedata.overflow1-+0
	rel 256+8 t=1 type.unsafe.Pointer+0
	rel 272+8 t=1 type..namedata.startBucket-+0
	rel 280+8 t=1 type.uintptr+0
	rel 296+8 t=1 type..namedata.stuff-+0
	rel 304+8 t=1 type.uintptr+0
	rel 320+8 t=1 type..namedata.bucket-+0
	rel 328+8 t=1 type.uintptr+0
	rel 344+8 t=1 type..namedata.checkBucket-+0
	rel 352+8 t=1 type.uintptr+0
go.itab.*os.File,io.Writer SNOPTRDATA dupok size=40
	0x0000 00 00 00 00 00 00 00 00 00 00 00 00 00 00 00 00  ................
	0x0010 00 00 00 00 00 00 00 00 44 b5 f3 33              ........D..3
	rel 0+8 t=1 type.io.Writer+0
	rel 8+8 t=1 type.*os.File+0
go.itablink.*os.File,io.Writer SRODATA dupok size=8
	0x0000 00 00 00 00 00 00 00 00                          ........
	rel 0+8 t=1 go.itab.*os.File,io.Writer+0
go.itab.*bytes.Reader,io.Reader SNOPTRDATA dupok size=40
	0x0000 00 00 00 00 00 00 00 00 00 00 00 00 00 00 00 00  ................
	0x0010 00 00 00 00 00 00 00 00 54 48 16 a5              ........TH..
	rel 0+8 t=1 type.io.Reader+0
	rel 8+8 t=1 type.*bytes.Reader+0
go.itablink.*bytes.Reader,io.Reader SRODATA dupok size=8
	0x0000 00 00 00 00 00 00 00 00                          ........
	rel 0+8 t=1 go.itab.*bytes.Reader,io.Reader+0
go.itab.*bufio.Reader,io.Reader SNOPTRDATA dupok size=40
	0x0000 00 00 00 00 00 00 00 00 00 00 00 00 00 00 00 00  ................
	0x0010 00 00 00 00 00 00 00 00 87 9b dc af              ............
	rel 0+8 t=1 type.io.Reader+0
	rel 8+8 t=1 type.*bufio.Reader+0
go.itablink.*bufio.Reader,io.Reader SRODATA dupok size=8
	0x0000 00 00 00 00 00 00 00 00                          ........
	rel 0+8 t=1 go.itab.*bufio.Reader,io.Reader+0
type..importpath.bufio. SRODATA dupok size=8
	0x0000 00 00 05 62 75 66 69 6f                          ...bufio
type..importpath.bytes. SRODATA dupok size=8
	0x0000 00 00 05 62 79 74 65 73                          ...bytes
type..importpath.flag. SRODATA dupok size=7
	0x0000 00 00 04 66 6c 61 67                             ...flag
type..importpath.io. SRODATA dupok size=5
	0x0000 00 00 02 69 6f                                   ...io
type..importpath.io/ioutil. SRODATA dupok size=12
	0x0000 00 00 09 69 6f 2f 69 6f 75 74 69 6c              ...io/ioutil
type..importpath.log. SRODATA dupok size=6
	0x0000 00 00 03 6c 6f 67                                ...log
type..importpath.os. SRODATA dupok size=5
	0x0000 00 00 02 6f 73                                   ...os
type..importpath.runtime. SRODATA dupok size=10
	0x0000 00 00 07 72 75 6e 74 69 6d 65                    ...runtime
type..importpath.runtime/pprof. SRODATA dupok size=16
	0x0000 00 00 0d 72 75 6e 74 69 6d 65 2f 70 70 72 6f 66  ...runtime/pprof
type..importpath.strings. SRODATA dupok size=10
	0x0000 00 00 07 73 74 72 69 6e 67 73                    ...strings
gclocals·ed2b4e9472fcfb4edac5bdc674d399da SRODATA dupok size=10
	0x0000 02 00 00 00 08 00 00 00 07 00                    ..........
gclocals·69c1753bd5f81501d95132d08af04464 SRODATA dupok size=8
	0x0000 02 00 00 00 00 00 00 00                          ........
gclocals·d4dc2f11db048877dbc0f60a22b4adb3 SRODATA dupok size=9
	0x0000 01 00 00 00 03 00 00 00 01                       .........
gclocals·33cdeccccebe80329f1fdbee7f5874cb SRODATA dupok size=8
	0x0000 01 00 00 00 00 00 00 00                          ........
gclocals·1b5bbc5077547cdcc54783daedd9c5fe SRODATA dupok size=17
	0x0000 09 00 00 00 04 00 00 00 03 03 03 00 00 00 00 03  ................
	0x0010 03                                               .
gclocals·30ce53953925ecce551ea5a1e6b68a83 SRODATA dupok size=44
	0x0000 09 00 00 00 1e 00 00 00 00 00 00 00 20 00 00 00  ............ ...
	0x0010 30 00 00 00 29 00 c8 0c e9 00 c8 0c 2f 00 c8 0c  0...)......./...
	0x0020 00 00 c8 0c 28 00 c8 0c 28 00 00 00              ....(...(...
gclocals·deec81f743b28bda3aa5e3128573b664 SRODATA dupok size=12
	0x0000 04 00 00 00 03 00 00 00 07 04 00 00              ............
gclocals·0c09ae43b0fb5060519fb41a606c0095 SRODATA dupok size=12
	0x0000 04 00 00 00 02 00 00 00 00 00 01 00              ............
gclocals·766db2c643d6a4e08ea5f900dc04308d SRODATA dupok size=13
	0x0000 05 00 00 00 05 00 00 00 01 01 01 01 00           .............
gclocals·6b1e73517a497ba9455dc0d96209dd50 SRODATA dupok size=18
	0x0000 05 00 00 00 0e 00 00 00 00 00 02 00 fd 03 01 00  ................
	0x0010 00 00                                            ..
gclocals·cadea2e49003779a155f5f8fb1f0fe78 SRODATA dupok size=11
	0x0000 03 00 00 00 03 00 00 00 00 00 00                 ...........
gclocals·9a26515dfaeddd28bcbc040f1199f48d SRODATA dupok size=11
	0x0000 03 00 00 00 02 00 00 00 00 02 01                 ...........
gclocals·3e27b3aa6b89137cce48b3379a2a6610 SRODATA dupok size=8
	0x0000 05 00 00 00 00 00 00 00                          ........
gclocals·b1157cd9bf60d0e9f75c8dd70a4c97a0 SRODATA dupok size=13
	0x0000 05 00 00 00 05 00 00 00 00 02 06 04 19           .............
gclocals·9fb7f0986f647f17cb53dda1484e0f7a SRODATA dupok size=10
	0x0000 02 00 00 00 01 00 00 00 00 01                    ..........
